(dp0
S'a'
p1
csympy.core.symbol
Symbol
p2
(g1
tp3
Rp4
(dp5
S'_assumptions'
p6
ccopy_reg
_reconstructor
p7
(csympy.core.assumptions
StdFactKB
p8
c__builtin__
dict
p9
(dp10
S'commutative'
p11
I01
sS'antihermitian'
p12
NsS'nonpositive'
p13
NsS'positive'
p14
NsS'negative'
p15
NsS'nonnegative'
p16
NsS'algebraic'
p17
NsS'zero'
p18
NsS'complex'
p19
NsS'rational'
p20
NsS'infinite'
p21
NsS'hermitian'
p22
NsS'finite'
p23
NsS'irrational'
p24
Nstp25
Rp26
sbsS'parameter_values'
p27
(lp28
(g2
(S'm_0'
p29
tp30
Rp31
(dp32
g6
g7
(g8
g9
(dp33
S'polar'
p34
Nsg11
I01
sg12
Nsg13
Nsg14
Nsg15
Nsg16
Nsg18
Nsg19
Nsg21
Nsg22
Nsg23
Nstp35
Rp36
sbF3.34
tp37
a(g2
(S'm_1'
p38
tp39
Rp40
(dp41
g6
g7
(g8
g9
(dp42
S'real'
p43
Nsg34
Nsg24
Nsg12
Nsg13
Nsg17
Nsg18
Nsg21
Nsg22
NsS'imaginary'
p44
Nsg11
I01
sg14
Nsg15
Nsg16
Nsg19
Nsg20
Nsg23
Nstp45
Rp46
sbF0.8512
tp47
a(g2
(S'm_2'
p48
tp49
Rp50
(dp51
g6
g7
(g8
g9
(dp52
g43
Nsg34
Nsg24
Nsg12
Nsg13
Nsg17
Nsg18
Nsg21
NsS'integer'
p53
Nsg22
NsS'odd'
p54
Nsg44
NsS'even'
p55
Nsg11
I01
sg14
Nsg15
Nsg16
Nsg19
Nsg20
Nsg23
Nstp56
Rp57
sbF0.8973
tp58
a(g2
(S'm_3'
p59
tp60
Rp61
(dp62
g6
g7
(g8
g9
(dp63
g43
Nsg34
Nsg24
Nsg12
Nsg13
Nsg17
Nsg18
Nsg21
Nsg53
Nsg22
Nsg54
Nsg44
Nsg55
Nsg11
I01
sg14
Nsg15
Nsg16
Nsg19
Nsg20
Nsg23
Nstp64
Rp65
sbF0.5519
tp66
a(g2
(S'J_1'
p67
tp68
Rp69
(dp70
g6
g7
(g8
g9
(dp71
g43
Nsg34
Nsg24
Nsg12
Nsg13
Nsg17
Nsg18
Nsg21
Nsg22
Nsg44
Nsg11
I01
sg14
Nsg15
Nsg16
Nsg19
Nsg20
Nsg23
Nstp72
Rp73
sbF0.01980194
tp74
a(g2
(S'J_2'
p75
tp76
Rp77
(dp78
g6
g7
(g8
g9
(dp79
g43
Nsg34
Nsg24
Nsg12
Nsg13
Nsg17
Nsg18
Nsg21
Nsg22
Nsg44
Nsg11
I01
sg14
Nsg15
Nsg16
Nsg19
Nsg20
Nsg23
Nstp80
Rp81
sbF0.02105375
tp82
a(g2
(S'J_3'
p83
tp84
Rp85
(dp86
g6
g7
(g8
g9
(dp87
g43
Nsg34
Nsg24
Nsg12
Nsg13
Nsg17
Nsg18
Nsg21
Nsg22
Nsg44
Nsg11
I01
sg14
Nsg15
Nsg16
Nsg19
Nsg20
Nsg23
Nstp88
Rp89
sbF0.01818537
tp90
a(g2
(S'l_1'
p91
tp92
Rp93
(dp94
g6
g7
(g8
g9
(dp95
g43
Nsg34
Nsg24
Nsg12
Nsg13
Nsg17
Nsg18
Nsg21
Nsg53
Nsg22
Nsg54
Nsg44
Nsg55
Nsg11
I01
sg14
Nsg15
Nsg16
Nsg19
Nsg20
Nsg23
Nstp96
Rp97
sbF0.32
tp98
a(g2
(S'l_2'
p99
tp100
Rp101
(dp102
g6
g7
(g8
g9
(dp103
g43
Nsg34
Nsg24
Nsg12
Nsg13
Nsg17
Nsg18
Nsg21
Nsg53
Nsg22
Nsg54
Nsg44
Nsg55
Nsg11
I01
sg14
Nsg15
Nsg16
Nsg19
Nsg20
Nsg23
Nstp104
Rp105
sbF0.419
tp106
a(g2
(S'l_3'
p107
tp108
Rp109
(dp110
g6
g7
(g8
g9
(dp111
g11
I01
stp112
Rp113
sbF0.485
tp114
a(g2
(S'a_1'
p115
tp116
Rp117
(dp118
g6
g7
(g8
g9
(dp119
g43
Nsg34
Nsg24
Nsg12
Nsg13
Nsg17
Nsg18
Nsg21
Nsg53
Nsg22
Nsg54
Nsg44
Nsg55
Nsg11
I01
sg14
Nsg15
Nsg16
Nsg19
Nsg20
Nsg23
Nstp120
Rp121
sbF0.20001517
tp122
a(g2
(S'a_2'
p123
tp124
Rp125
(dp126
g6
g7
(g8
g9
(dp127
g43
Nsg34
Nsg24
Nsg12
Nsg13
Nsg17
Nsg18
Nsg21
Nsg53
Nsg22
Nsg54
Nsg44
Nsg55
Nsg11
I01
sg14
Nsg15
Nsg16
Nsg19
Nsg20
Nsg23
Nstp128
Rp129
sbF0.26890449
tp130
a(g2
(S'a_3'
p131
tp132
Rp133
(dp134
g6
g7
(g8
g9
(dp135
g43
Nsg34
Nsg24
Nsg12
Nsg13
Nsg17
Nsg18
Nsg21
Nsg53
Nsg22
Nsg54
Nsg44
Nsg55
Nsg11
I01
sg14
Nsg15
Nsg16
Nsg19
Nsg20
Nsg23
Nstp136
Rp137
sbF0.21666087
tp138
a(g2
(S'g'
p139
tp140
Rp141
(dp142
g6
g7
(g8
g9
(dp143
g34
Nsg11
I01
sg12
Nsg13
Nsg14
Nsg15
Nsg16
Nsg17
Nsg18
Nsg19
Nsg20
Nsg21
Nsg22
Nsg23
Nsg24
Nstp144
Rp145
sbF9.81
tp146
a(g2
(S'd_1'
p147
tp148
Rp149
(dp150
g6
g7
(g8
g9
(dp151
g34
Nsg11
I01
sg12
Nsg13
Nsg14
Nsg15
Nsg16
Nsg18
Nsg19
Nsg21
Nsg22
Nsg23
Nstp152
Rp153
sbF0.00715294
tp154
a(g2
(S'd_2'
p155
tp156
Rp157
(dp158
g6
g7
(g8
g9
(dp159
g34
Nsg11
I01
sg12
Nsg13
Nsg14
Nsg15
Nsg16
Nsg18
Nsg19
Nsg21
Nsg22
Nsg23
Nstp160
Rp161
sbF1.9497e-06
tp162
a(g2
(S'd_3'
p163
tp164
Rp165
(dp166
g6
g7
(g8
g9
(dp167
g34
Nsg11
I01
sg12
Nsg13
Nsg14
Nsg15
Nsg16
Nsg18
Nsg19
Nsg21
Nsg22
Nsg23
Nstp168
Rp169
sbF0.00164642
tp170
asS'Bext'
p171
g7
(csympy.matrices.dense
MutableDenseMatrix
p172
c__builtin__
object
p173
Ntp174
Rp175
(dp176
S'rows'
p177
I9
sS'_mat'
p178
(lp179
csympy.core.numbers
Zero
p180
(tRp181
(dp182
bag181
ag181
ag181
acsympy.core.numbers
Float
p183
((I0
S'19341c630eed7L'
p184
I-47
I49
tp185
tp186
Rp187
(dp188
S'_prec'
p189
I53
sbag183
((I1
S'164bb16d1bf1L'
p190
I-50
I45
tp191
tp192
Rp193
(dp194
g189
I53
sbag183
((I0
S'ae48223620e93L'
p195
I-60
I52
tp196
tp197
Rp198
(dp199
g189
I53
sbacsympy.core.numbers
One
p200
(tRp201
(dp202
bag181
asS'cols'
p203
I1
sbsS'Ta'
p204
g2
(g204
tp205
Rp206
(dp207
g6
g7
(g8
g9
(dp208
g14
Nsg18
Nsg11
I01
sg15
Nstp209
Rp210
sbsS'parameters'
p211
(g31
g40
g50
g61
g69
g77
g85
g93
g101
g109
g117
g125
g133
g141
g149
g157
g165
tp212
sS'B_jac_num'
p213
g7
(g172
g173
Ntp214
Rp215
(dp216
g177
I8
sg178
(lp217
g181
ag181
ag181
ag181
acsympy.core.add
Add
p218
(csympy.core.mul
Mul
p219
(g183
((I0
S'a24d9f25d4223L'
p220
I-52
I52
tp221
tp222
Rp223
(dp224
g189
I53
sbcsympy.core.power
Pow
p225
(g218
(g183
((I0
S'356d3170a681dL'
p226
I-59
I50
tp227
tp228
Rp229
(dp230
g189
I53
sbg219
(g183
((I1
S'842472f11b79dL'
p231
I-61
I52
tp232
tp233
Rp234
(dp235
g189
I53
sbg225
(csympy.functions.elementary.trigonometric
cos
p236
(g218
(g2
(S'q1'
p237
tp238
Rp239
(dp240
g6
g7
(g8
g9
(dp241
g43
NsS'nonzero'
p242
Nsg24
Nsg12
Nsg13
Nsg17
Nsg22
Nsg21
Nsg53
Nsg44
Nsg54
Nsg55
Nsg11
I01
sg18
Nsg14
Nsg15
Nsg16
Nsg19
Nsg20
Nsg23
Nstp243
Rp244
sbg219
(csympy.core.numbers
NegativeOne
p245
(tRp246
(dp247
bg2
(S'q2'
p248
tp249
Rp250
(dp251
g6
g7
(g8
g9
(dp252
g43
Nsg34
Nsg24
Nsg12
Nsg13
Nsg17
Nsg18
Nsg21
Nsg53
Nsg22
Nsg54
Nsg44
Nsg55
Nsg23
Nsg11
I01
sg14
Nsg15
Nsg16
Nsg19
Nsg20
Nsg242
Nstp253
Rp254
sbtp255
Rp256
(dp257
btp258
Rp259
(dp260
btp261
Rp262
(dp263
bcsympy.core.numbers
Integer
p264
(I2
tp265
Rp266
(dp267
btp268
Rp269
(dp270
btp271
Rp272
(dp273
bg219
(g183
((I1
S'8c585bae390d1L'
p274
I-63
I52
tp275
tp276
Rp277
(dp278
g189
I53
sbg225
(g236
(g218
(g239
g219
(g246
g2
(S'q3'
p279
tp280
Rp281
(dp282
g6
g7
(g8
g9
(dp283
g43
Nsg34
Nsg24
Nsg12
Nsg13
Nsg17
Nsg18
Nsg21
Nsg53
Nsg22
Nsg54
Nsg44
Nsg55
Nsg23
Nsg11
I01
sg14
Nsg15
Nsg16
Nsg19
Nsg20
Nsg242
Nstp284
Rp285
sbtp286
Rp287
(dp288
btp289
Rp290
(dp291
btp292
Rp293
(dp294
bg266
tp295
Rp296
(dp297
btp298
Rp299
(dp300
bg219
(g183
((I1
S'10a2e0714ba6b5L'
p301
I-63
I53
tp302
tp303
Rp304
(dp305
g189
I53
sbg225
(g236
(g218
(g250
g287
tp306
Rp307
(dp308
btp309
Rp310
(dp311
bg266
tp312
Rp313
(dp314
btp315
Rp316
(dp317
bg219
(g183
((I0
S'97fbfcd79f089L'
p318
I-62
I52
tp319
tp320
Rp321
(dp322
g189
I53
sbg262
g293
g310
tp323
Rp324
(dp325
btp326
Rp327
(dp328
bg246
tp329
Rp330
(dp331
bg218
(g183
((I0
S'420a0781d0b7dL'
p332
I-57
I51
tp333
tp334
Rp335
(dp336
g189
I53
sbg219
(g183
((I1
S'149049f025ae33L'
p337
I-61
I53
tp338
tp339
Rp340
(dp341
g189
I53
sbg313
tp342
Rp343
(dp344
btp345
Rp346
(dp347
bg236
(g239
tp348
Rp349
(dp350
btp351
Rp352
(dp353
bg219
(g183
((I0
S'1e3dffa93afa99L'
p354
I-54
I53
tp355
tp356
Rp357
(dp358
g189
I53
sbg330
g218
(g219
(g183
((I1
S'da793eee15fbfL'
p359
I-59
I52
tp360
tp361
Rp362
(dp363
g189
I53
sbg262
tp364
Rp365
(dp366
bg219
(g183
((I0
S'1f68eb21d421e9L'
p367
I-62
I53
tp368
tp369
Rp370
(dp371
g189
I53
sbg293
g310
tp372
Rp373
(dp374
btp375
Rp376
(dp377
bg236
(g250
tp378
Rp379
(dp380
btp381
Rp382
(dp383
bg219
(g183
((I0
S'1e9c79da9a193dL'
p384
I-56
I53
tp385
tp386
Rp387
(dp388
g189
I53
sbg330
g218
(g219
(g183
((I1
S'1ca79d82cabf43L'
p389
I-60
I53
tp390
tp391
Rp392
(dp393
g189
I53
sbg293
tp394
Rp395
(dp396
bg219
(g183
((I0
S'1f07f9f4bac24bL'
p397
I-60
I53
tp398
tp399
Rp400
(dp401
g189
I53
sbg262
g310
tp402
Rp403
(dp404
btp405
Rp406
(dp407
bg236
(g281
tp408
Rp409
(dp410
btp411
Rp412
(dp413
btp414
Rp415
(dp416
bag218
(g219
(g183
((I0
S'a24d9f25d4223L'
p417
I-52
I52
tp418
tp419
Rp420
(dp421
g189
I53
sbg330
g376
g349
tp422
Rp423
(dp424
bg219
(g183
((I0
S'1e3dffa93afa99L'
p425
I-54
I53
tp426
tp427
Rp428
(dp429
g189
I53
sbg330
g218
(g183
((I0
S'921c459d963b3L'
p430
I-58
I52
tp431
tp432
Rp433
(dp434
g189
I53
sbg219
(g183
((I1
S'5ff424738ffc1L'
p435
I-60
I51
tp436
tp437
Rp438
(dp439
g189
I53
sbg296
tp440
Rp441
(dp442
btp443
Rp444
(dp445
bg379
tp446
Rp447
(dp448
bg219
(g183
((I0
S'1e9c79da9a193dL'
p449
I-56
I53
tp450
tp451
Rp452
(dp453
g189
I53
sbg330
g218
(g219
(g183
((I1
S'a606143a8eb55L'
p454
I-58
I52
tp455
tp456
Rp457
(dp458
g189
I53
sbg310
tp459
Rp460
(dp461
bg219
(g183
((I0
S'17b2ffa92fee33L'
p462
I-60
I53
tp463
tp464
Rp465
(dp466
g189
I53
sbg262
g293
tp467
Rp468
(dp469
btp470
Rp471
(dp472
bg409
tp473
Rp474
(dp475
btp476
Rp477
(dp478
bag218
(g219
(g183
((I0
S'a24d9f25d4223L'
p479
I-52
I52
tp480
tp481
Rp482
(dp483
g189
I53
sbg330
g406
g349
tp484
Rp485
(dp486
bg219
(g183
((I0
S'1e3dffa93afa99L'
p487
I-54
I53
tp488
tp489
Rp490
(dp491
g189
I53
sbg330
g471
g379
tp492
Rp493
(dp494
bg219
(g183
((I0
S'1e9c79da9a193dL'
p495
I-56
I53
tp496
tp497
Rp498
(dp499
g189
I53
sbg330
g218
(g183
((I0
S'4bbb0533d43ebL'
p500
I-55
I51
tp501
tp502
Rp503
(dp504
g189
I53
sbg219
(g183
((I1
S'bb4ed5b56925dL'
p505
I-57
I52
tp506
tp507
Rp508
(dp509
g189
I53
sbg269
tp510
Rp511
(dp512
btp513
Rp514
(dp515
bg409
tp516
Rp517
(dp518
btp519
Rp520
(dp521
bag201
asg203
I1
sbsS'qdd_part_lin_ident'
p522
(lp523
g2
(S'q1d'
p524
tp525
Rp526
(dp527
g6
g7
(g8
g9
(dp528
g43
Nsg34
Nsg24
Nsg12
Nsg13
Nsg17
Nsg18
Nsg21
Nsg53
Nsg22
Nsg54
Nsg44
Nsg55
Nsg11
I01
sg14
Nsg15
Nsg16
Nsg19
Nsg20
Nsg23
Nstp529
Rp530
sbag2
(S'q2d'
p531
tp532
Rp533
(dp534
g6
g7
(g8
g9
(dp535
g43
Nsg34
Nsg24
Nsg12
Nsg13
Nsg17
Nsg18
Nsg21
Nsg53
Nsg22
Nsg54
Nsg44
Nsg55
Nsg11
I01
sg14
Nsg15
Nsg16
Nsg19
Nsg20
Nsg23
Nstp536
Rp537
sbag2
(S'q3d'
p538
tp539
Rp540
(dp541
g6
g7
(g8
g9
(dp542
g43
Nsg34
Nsg24
Nsg12
Nsg13
Nsg17
Nsg18
Nsg21
Nsg53
Nsg22
Nsg54
Nsg44
Nsg55
Nsg11
I01
sg14
Nsg15
Nsg16
Nsg19
Nsg20
Nsg23
Nstp543
Rp544
sbag2
(S'q4d'
p545
tp546
Rp547
(dp548
g6
g7
(g8
g9
(dp549
g14
Nsg18
Nsg11
I01
sg15
Nstp550
Rp551
sbag218
(g219
(g246
g225
(g218
(g219
(g183
((I0
S'1L'
p552
I0
I1
tp553
tp554
Rp555
(dp556
g189
I53
sbg69
g77
g85
tp557
Rp558
(dp559
bg219
(g183
((I0
S'1L'
p560
I0
I1
tp561
tp562
Rp563
(dp564
g189
I53
sbg69
g77
g61
g225
(g133
g266
tp565
Rp566
(dp567
btp568
Rp569
(dp570
bg219
(g183
((I0
S'1L'
p571
I0
I1
tp572
tp573
Rp574
(dp575
g189
I53
sbg69
g85
g50
g225
(g125
g266
tp576
Rp577
(dp578
btp579
Rp580
(dp581
bg219
(g183
((I0
S'1L'
p582
I0
I1
tp583
tp584
Rp585
(dp586
g189
I53
sbg69
g85
g61
g225
(g101
g266
tp587
Rp588
(dp589
btp590
Rp591
(dp592
bg219
(g183
((I0
S'1L'
p593
I0
I1
tp594
tp595
Rp596
(dp597
g189
I53
sbg69
g566
g588
g225
(g61
g266
tp598
Rp599
(dp600
btp601
Rp602
(dp603
bg219
(g183
((I0
S'1L'
p604
I0
I1
tp605
tp606
Rp607
(dp608
g189
I53
sbg77
g85
g40
g225
(g117
g266
tp609
Rp610
(dp611
btp612
Rp613
(dp614
bg219
(g183
((I0
S'1L'
p615
I0
I1
tp616
tp617
Rp618
(dp619
g189
I53
sbg77
g85
g50
g225
(g93
g266
tp620
Rp621
(dp622
btp623
Rp624
(dp625
bg219
(g183
((I0
S'1L'
p626
I0
I1
tp627
tp628
Rp629
(dp630
g189
I53
sbg77
g85
g61
g621
tp631
Rp632
(dp633
bg219
(g183
((I0
S'1L'
p634
I0
I1
tp635
tp636
Rp637
(dp638
g189
I53
sbg77
g566
g621
g599
tp639
Rp640
(dp641
bg219
(g183
((I0
S'1L'
p642
I0
I1
tp643
tp644
Rp645
(dp646
g189
I53
sbg85
g577
g621
g225
(g50
g266
tp647
Rp648
(dp649
btp650
Rp651
(dp652
bg219
(g183
((I0
S'1L'
p653
I0
I1
tp654
tp655
Rp656
(dp657
g189
I53
sbg85
g621
g588
g599
tp658
Rp659
(dp660
bg219
(g183
((I0
S'1L'
p661
I0
I1
tp662
tp663
Rp664
(dp665
g189
I53
sbg566
g621
g588
g225
(g61
g264
(I3
tp666
Rp667
(dp668
btp669
Rp670
(dp671
btp672
Rp673
(dp674
bg219
(g183
((I0
S'1L'
p675
I0
I1
tp676
tp677
Rp678
(dp679
g189
I53
sbg69
g50
g61
g577
g566
tp680
Rp681
(dp682
bg219
(g183
((I0
S'1L'
p683
I0
I1
tp684
tp685
Rp686
(dp687
g189
I53
sbg77
g40
g61
g610
g566
tp688
Rp689
(dp690
bg219
(g183
((I0
S'1L'
p691
I0
I1
tp692
tp693
Rp694
(dp695
g189
I53
sbg77
g50
g61
g566
g621
tp696
Rp697
(dp698
bg219
(g183
((I0
S'1L'
p699
I0
I1
tp700
tp701
Rp702
(dp703
g189
I53
sbg85
g40
g50
g610
g577
tp704
Rp705
(dp706
bg219
(g183
((I0
S'1L'
p707
I0
I1
tp708
tp709
Rp710
(dp711
g189
I53
sbg85
g40
g61
g610
g588
tp712
Rp713
(dp714
bg219
(g183
((I0
S'1L'
p715
I0
I1
tp716
tp717
Rp718
(dp719
g189
I53
sbg85
g50
g61
g577
g621
tp720
Rp721
(dp722
bg219
(g183
((I0
S'1L'
p723
I0
I1
tp724
tp725
Rp726
(dp727
g189
I53
sbg85
g50
g61
g621
g588
tp728
Rp729
(dp730
bg219
(g183
((I0
S'1L'
p731
I0
I1
tp732
tp733
Rp734
(dp735
g189
I53
sbg40
g610
g566
g588
g599
tp736
Rp737
(dp738
bg219
(g183
((I0
S'1L'
p739
I0
I1
tp740
tp741
Rp742
(dp743
g189
I53
sbg50
g577
g566
g621
g599
tp744
Rp745
(dp746
bg219
(g183
((I0
S'1L'
p747
I0
I1
tp748
tp749
Rp750
(dp751
g189
I53
sbg50
g566
g621
g588
g599
tp752
Rp753
(dp754
bg219
(g183
((I0
S'1L'
p755
I0
I1
tp756
tp757
Rp758
(dp759
g189
I53
sbg61
g577
g566
g621
g648
tp760
Rp761
(dp762
bg219
(g183
((I1
S'1L'
p763
I0
I1
tp764
tp765
Rp766
(dp767
g189
I53
sbg69
g566
g588
g599
g313
tp768
Rp769
(dp770
bg219
(g183
((I1
S'1L'
p771
I0
I1
tp772
tp773
Rp774
(dp775
g189
I53
sbg77
g566
g621
g599
g296
tp776
Rp777
(dp778
bg219
(g183
((I1
S'1L'
p779
I0
I1
tp780
tp781
Rp782
(dp783
g189
I53
sbg85
g577
g621
g648
g269
tp784
Rp785
(dp786
bg219
(g183
((I1
S'1L'
p787
I0
I1
tp788
tp789
Rp790
(dp791
g189
I53
sbg85
g621
g588
g599
g269
tp792
Rp793
(dp794
bg219
(g183
((I1
S'1L'
p795
I0
I1
tp796
tp797
Rp798
(dp799
g189
I53
sbg566
g621
g588
g670
g269
tp800
Rp801
(dp802
bg219
(g183
((I1
S'1L'
p803
I0
I1
tp804
tp805
Rp806
(dp807
g189
I53
sbg566
g621
g588
g670
g296
tp808
Rp809
(dp810
bg219
(g183
((I1
S'1L'
p811
I0
I1
tp812
tp813
Rp814
(dp815
g189
I53
sbg566
g621
g588
g670
g313
tp816
Rp817
(dp818
bg219
(g183
((I0
S'1L'
p819
I0
I1
tp820
tp821
Rp822
(dp823
g189
I53
sbg40
g50
g61
g610
g577
g566
tp824
Rp825
(dp826
bg219
(g183
((I1
S'1L'
p827
I0
I1
tp828
tp829
Rp830
(dp831
g189
I53
sbg40
g610
g566
g588
g599
g313
tp832
Rp833
(dp834
bg219
(g183
((I1
S'1L'
p835
I0
I1
tp836
tp837
Rp838
(dp839
g189
I53
sbg50
g577
g566
g621
g599
g296
tp840
Rp841
(dp842
bg219
(g183
((I1
S'1L'
p843
I0
I1
tp844
tp845
Rp846
(dp847
g189
I53
sbg50
g566
g621
g588
g599
g313
tp848
Rp849
(dp850
bg219
(g183
((I1
S'1L'
p851
I0
I1
tp852
tp853
Rp854
(dp855
g189
I53
sbg61
g577
g566
g621
g648
g269
tp856
Rp857
(dp858
bg219
(g183
((I0
S'1L'
p859
I1
I1
tp860
tp861
Rp862
(dp863
g189
I53
sbg566
g621
g588
g670
g262
g293
g310
tp864
Rp865
(dp866
bg219
(g183
((I1
S'1L'
p867
I1
I1
tp868
tp869
Rp870
(dp871
g189
I53
sbg85
g125
g101
g50
g61
g621
g269
tp872
Rp873
(dp874
bg219
(g183
((I1
S'1L'
p875
I1
I1
tp876
tp877
Rp878
(dp879
g189
I53
sbg125
g101
g50
g566
g621
g599
g269
tp880
Rp881
(dp882
bg219
(g183
((I0
S'1L'
p883
I1
I1
tp884
tp885
Rp886
(dp887
g189
I53
sbg125
g101
g50
g566
g621
g599
g262
g293
g310
tp888
Rp889
(dp890
btp891
Rp892
(dp893
bg246
tp894
Rp895
(dp896
bg218
(g219
(g218
(g219
(g183
((I1
S'1L'
p897
I0
I1
tp898
tp899
Rp900
(dp901
g189
I53
sbg85
tp902
Rp903
(dp904
bg219
(g183
((I1
S'1L'
p905
I0
I1
tp906
tp907
Rp908
(dp909
g189
I53
sbg61
g566
tp910
Rp911
(dp912
btp913
Rp914
(dp915
bg218
(g219
(g183
((I1
S'1L'
p916
I0
I1
tp917
tp918
Rp919
(dp920
g189
I53
sbg77
tp921
Rp922
(dp923
bg219
(g183
((I1
S'1L'
p924
I0
I1
tp925
tp926
Rp927
(dp928
g189
I53
sbg50
g577
tp929
Rp930
(dp931
bg219
(g183
((I1
S'1L'
p932
I0
I1
tp933
tp934
Rp935
(dp936
g189
I53
sbg61
g588
tp937
Rp938
(dp939
btp940
Rp941
(dp942
btp943
Rp944
(dp945
bg219
(g183
((I1
S'1L'
p946
I0
I1
tp947
tp948
Rp949
(dp950
g189
I53
sbg566
g588
g599
g313
tp951
Rp952
(dp953
btp954
Rp955
(dp956
bg218
(g219
(g4
g218
(g219
(g183
((I1
S'1L'
p957
I0
I1
tp958
tp959
Rp960
(dp961
g189
I53
sbg117
g40
g349
tp962
Rp963
(dp964
bg219
(g183
((I1
S'1L'
p965
I0
I1
tp966
tp967
Rp968
(dp969
g189
I53
sbg93
g50
g349
tp970
Rp971
(dp972
bg219
(g183
((I1
S'1L'
p973
I0
I1
tp974
tp975
Rp976
(dp977
g189
I53
sbg93
g61
g349
tp978
Rp979
(dp980
btp981
Rp982
(dp983
btp984
Rp985
(dp986
bg219
(g183
((I0
S'1L'
p987
I0
I1
tp988
tp989
Rp990
(dp991
g189
I53
sbg149
g526
tp992
Rp993
(dp994
bg219
(g183
((I0
S'1L'
p995
I0
I1
tp996
tp997
Rp998
(dp999
g189
I53
sbg157
g526
tp1000
Rp1001
(dp1002
bg219
(g183
((I1
S'1L'
p1003
I0
I1
tp1004
tp1005
Rp1006
(dp1007
g189
I53
sbg157
g533
tp1008
Rp1009
(dp1010
bg219
(g183
((I1
S'1L'
p1011
I0
I1
tp1012
tp1013
Rp1014
(dp1015
g189
I53
sbg117
g141
g40
csympy.functions.elementary.trigonometric
sin
p1016
(g239
tp1017
Rp1018
(dp1019
btp1020
Rp1021
(dp1022
bg219
(g183
((I1
S'1L'
p1023
I0
I1
tp1024
tp1025
Rp1026
(dp1027
g189
I53
sbg141
g93
g50
g1018
tp1028
Rp1029
(dp1030
bg219
(g183
((I1
S'1L'
p1031
I0
I1
tp1032
tp1033
Rp1034
(dp1035
g189
I53
sbg141
g93
g61
g1018
tp1036
Rp1037
(dp1038
bg219
(g183
((I0
S'1L'
p1039
I0
I1
tp1040
tp1041
Rp1042
(dp1043
g189
I53
sbg125
g93
g50
g225
(g533
g266
tp1044
Rp1045
(dp1046
bg1016
(g259
tp1047
Rp1048
(dp1049
btp1050
Rp1051
(dp1052
bg219
(g183
((I0
S'1L'
p1053
I0
I1
tp1054
tp1055
Rp1056
(dp1057
g189
I53
sbg133
g93
g61
g225
(g540
g266
tp1058
Rp1059
(dp1060
bg1016
(g290
tp1061
Rp1062
(dp1063
btp1064
Rp1065
(dp1066
bg219
(g183
((I0
S'1L'
p1067
I0
I1
tp1068
tp1069
Rp1070
(dp1071
g189
I53
sbg93
g101
g61
g1045
g1048
tp1072
Rp1073
(dp1074
btp1075
Rp1076
(dp1077
btp1078
Rp1079
(dp1080
bg219
(g246
g895
g218
(g219
(g246
g914
g218
(g219
(g183
((I1
S'1L'
p1081
I0
I1
tp1082
tp1083
Rp1084
(dp1085
g189
I53
sbg125
g93
g50
g262
tp1086
Rp1087
(dp1088
bg219
(g183
((I1
S'1L'
p1089
I0
I1
tp1090
tp1091
Rp1092
(dp1093
g189
I53
sbg93
g101
g61
g262
tp1094
Rp1095
(dp1096
btp1097
Rp1098
(dp1099
btp1100
Rp1101
(dp1102
bg219
(g183
((I0
S'1L'
p1103
I0
I1
tp1104
tp1105
Rp1106
(dp1107
g189
I53
sbg93
g101
g566
g599
g293
g310
tp1108
Rp1109
(dp1110
btp1111
Rp1112
(dp1113
bg218
(g219
(g4
g218
(g219
(g183
((I1
S'1L'
p1114
I0
I1
tp1115
tp1116
Rp1117
(dp1118
g189
I53
sbg125
g50
g379
tp1119
Rp1120
(dp1121
bg219
(g183
((I1
S'1L'
p1122
I0
I1
tp1123
tp1124
Rp1125
(dp1126
g189
I53
sbg101
g61
g379
tp1127
Rp1128
(dp1129
btp1130
Rp1131
(dp1132
btp1133
Rp1134
(dp1135
bg219
(g183
((I0
S'1L'
p1136
I0
I1
tp1137
tp1138
Rp1139
(dp1140
g189
I53
sbg157
g533
tp1141
Rp1142
(dp1143
bg219
(g183
((I0
S'1L'
p1144
I0
I1
tp1145
tp1146
Rp1147
(dp1148
g189
I53
sbg165
g533
tp1149
Rp1150
(dp1151
bg219
(g183
((I1
S'1L'
p1152
I0
I1
tp1153
tp1154
Rp1155
(dp1156
g189
I53
sbg157
g526
tp1157
Rp1158
(dp1159
bg219
(g183
((I1
S'1L'
p1160
I0
I1
tp1161
tp1162
Rp1163
(dp1164
g189
I53
sbg165
g540
tp1165
Rp1166
(dp1167
bg219
(g183
((I1
S'1L'
p1168
I0
I1
tp1169
tp1170
Rp1171
(dp1172
g189
I53
sbg125
g141
g50
g1016
(g250
tp1173
Rp1174
(dp1175
btp1176
Rp1177
(dp1178
bg219
(g183
((I1
S'1L'
p1179
I0
I1
tp1180
tp1181
Rp1182
(dp1183
g189
I53
sbg141
g101
g61
g1174
tp1184
Rp1185
(dp1186
bg219
(g183
((I0
S'1L'
p1187
I0
I1
tp1188
tp1189
Rp1190
(dp1191
g189
I53
sbg133
g101
g61
g1059
g1016
(g307
tp1192
Rp1193
(dp1194
btp1195
Rp1196
(dp1197
bg219
(g183
((I1
S'1L'
p1198
I0
I1
tp1199
tp1200
Rp1201
(dp1202
g189
I53
sbg125
g93
g50
g225
(g526
g266
tp1203
Rp1204
(dp1205
bg1048
tp1206
Rp1207
(dp1208
bg219
(g183
((I1
S'1L'
p1209
I0
I1
tp1210
tp1211
Rp1212
(dp1213
g189
I53
sbg93
g101
g61
g1204
g1048
tp1214
Rp1215
(dp1216
btp1217
Rp1218
(dp1219
btp1220
Rp1221
(dp1222
bg219
(g246
g895
g218
(g219
(g183
((I0
S'1L'
p1223
I0
I1
tp1224
tp1225
Rp1226
(dp1227
g189
I53
sbg133
g93
g61
g218
(g219
(g183
((I1
S'1L'
p1228
I0
I1
tp1229
tp1230
Rp1231
(dp1232
g189
I53
sbg77
tp1233
Rp1234
(dp1235
bg219
(g927
g50
g577
tp1236
Rp1237
(dp1238
bg219
(g935
g61
g588
tp1239
Rp1240
(dp1241
btp1242
Rp1243
(dp1244
bg293
tp1245
Rp1246
(dp1247
bg219
(g183
((I1
S'1L'
p1248
I0
I1
tp1249
tp1250
Rp1251
(dp1252
g189
I53
sbg133
g101
g61
g1098
g310
tp1253
Rp1254
(dp1255
btp1256
Rp1257
(dp1258
bg218
(g219
(g183
((I0
S'1L'
p1259
I0
I1
tp1260
tp1261
Rp1262
(dp1263
g189
I53
sbg165
g540
tp1264
Rp1265
(dp1266
bg219
(g183
((I1
S'1L'
p1267
I0
I1
tp1268
tp1269
Rp1270
(dp1271
g189
I53
sbg165
g533
tp1272
Rp1273
(dp1274
bg219
(g183
((I1
S'1L'
p1275
I0
I1
tp1276
tp1277
Rp1278
(dp1279
g189
I53
sbg4
g133
g61
g409
tp1280
Rp1281
(dp1282
bg219
(g183
((I1
S'1L'
p1283
I0
I1
tp1284
tp1285
Rp1286
(dp1287
g189
I53
sbg133
g141
g61
g1016
(g281
tp1288
Rp1289
(dp1290
btp1291
Rp1292
(dp1293
bg219
(g183
((I1
S'1L'
p1294
I0
I1
tp1295
tp1296
Rp1297
(dp1298
g189
I53
sbg133
g93
g61
g1204
g1062
tp1299
Rp1300
(dp1301
bg219
(g183
((I1
S'1L'
p1302
I0
I1
tp1303
tp1304
Rp1305
(dp1306
g189
I53
sbg133
g101
g61
g1045
g1193
tp1307
Rp1308
(dp1309
btp1310
Rp1311
(dp1312
btp1313
Rp1314
(dp1315
btp1316
Rp1317
(dp1318
bag218
(g219
(g246
g895
g218
(g219
(g914
g218
(g219
(g183
((I1
S'1L'
p1319
I0
I1
tp1320
tp1321
Rp1322
(dp1323
g189
I53
sbg69
tp1324
Rp1325
(dp1326
bg219
(g183
((I1
S'1L'
p1327
I0
I1
tp1328
tp1329
Rp1330
(dp1331
g189
I53
sbg40
g610
tp1332
Rp1333
(dp1334
bg219
(g183
((I1
S'1L'
p1335
I0
I1
tp1336
tp1337
Rp1338
(dp1339
g189
I53
sbg50
g621
tp1340
Rp1341
(dp1342
bg219
(g183
((I1
S'1L'
p1343
I0
I1
tp1344
tp1345
Rp1346
(dp1347
g189
I53
sbg61
g621
tp1348
Rp1349
(dp1350
btp1351
Rp1352
(dp1353
btp1354
Rp1355
(dp1356
bg219
(g183
((I1
S'1L'
p1357
I0
I1
tp1358
tp1359
Rp1360
(dp1361
g189
I53
sbg566
g621
g599
g296
tp1362
Rp1363
(dp1364
btp1365
Rp1366
(dp1367
bg1218
tp1368
Rp1369
(dp1370
bg219
(g246
g895
g1112
g1076
tp1371
Rp1372
(dp1373
bg219
(g246
g895
g218
(g219
(g183
((I0
S'1L'
p1374
I0
I1
tp1375
tp1376
Rp1377
(dp1378
g189
I53
sbg133
g101
g61
g1352
g310
tp1379
Rp1380
(dp1381
bg219
(g183
((I1
S'1L'
p1382
I0
I1
tp1383
tp1384
Rp1385
(dp1386
g189
I53
sbg133
g93
g61
g218
(g219
(g1084
g125
g93
g50
g262
tp1387
Rp1388
(dp1389
bg219
(g1092
g93
g101
g61
g262
tp1390
Rp1391
(dp1392
btp1393
Rp1394
(dp1395
bg293
tp1396
Rp1397
(dp1398
btp1399
Rp1400
(dp1401
bg1311
tp1402
Rp1403
(dp1404
btp1405
Rp1406
(dp1407
bag218
(g219
(g246
g895
g218
(g219
(g218
(g219
(g183
((I0
S'1L'
p1408
I0
I1
tp1409
tp1410
Rp1411
(dp1412
g189
I53
sbg125
g93
g50
g262
tp1413
Rp1414
(dp1415
bg219
(g183
((I0
S'1L'
p1416
I0
I1
tp1417
tp1418
Rp1419
(dp1420
g189
I53
sbg93
g101
g61
g262
tp1421
Rp1422
(dp1423
btp1424
Rp1425
(dp1426
bg1394
tp1427
Rp1428
(dp1429
bg219
(g941
g1352
tp1430
Rp1431
(dp1432
btp1433
Rp1434
(dp1435
bg1311
tp1436
Rp1437
(dp1438
bg219
(g246
g895
g218
(g219
(g183
((I0
S'1L'
p1439
I0
I1
tp1440
tp1441
Rp1442
(dp1443
g189
I53
sbg133
g93
g61
g218
(g219
(g1411
g125
g93
g50
g262
tp1444
Rp1445
(dp1446
bg219
(g1419
g93
g101
g61
g262
tp1447
Rp1448
(dp1449
btp1450
Rp1451
(dp1452
bg293
tp1453
Rp1454
(dp1455
bg1380
tp1456
Rp1457
(dp1458
bg1218
tp1459
Rp1460
(dp1461
bg219
(g246
g895
g218
(g219
(g183
((I1
S'1L'
p1462
I0
I1
tp1463
tp1464
Rp1465
(dp1466
g189
I53
sbg133
g93
g61
g218
(g219
(g183
((I0
S'1L'
p1467
I0
I1
tp1468
tp1469
Rp1470
(dp1471
g189
I53
sbg77
tp1472
Rp1473
(dp1474
bg219
(g183
((I0
S'1L'
p1475
I0
I1
tp1476
tp1477
Rp1478
(dp1479
g189
I53
sbg50
g577
tp1480
Rp1481
(dp1482
bg219
(g183
((I0
S'1L'
p1483
I0
I1
tp1484
tp1485
Rp1486
(dp1487
g189
I53
sbg61
g588
tp1488
Rp1489
(dp1490
btp1491
Rp1492
(dp1493
bg293
tp1494
Rp1495
(dp1496
bg219
(g1251
g133
g101
g61
g1098
g310
tp1497
Rp1498
(dp1499
btp1500
Rp1501
(dp1502
bg1076
tp1503
Rp1504
(dp1505
btp1506
Rp1507
(dp1508
bag4
asS'A_jac_num'
p1509
g7
(g172
g173
Ntp1510
Rp1511
(dp1512
g177
I8
sg178
(lp1513
g181
ag181
ag181
ag181
ag201
ag181
ag181
ag181
ag181
ag181
ag181
ag181
ag181
ag201
ag181
ag181
ag181
ag181
ag181
ag181
ag181
ag181
ag201
ag181
ag181
ag181
ag181
ag181
ag181
ag181
ag181
ag201
ag218
(g219
(g246
g330
g218
(g183
((I0
S'420a0781d0b7dL'
p1514
I-57
I51
tp1515
tp1516
Rp1517
(dp1518
g189
I53
sbg219
(g183
((I1
S'149049f025ae33L'
p1519
I-61
I53
tp1520
tp1521
Rp1522
(dp1523
g189
I53
sbg313
tp1524
Rp1525
(dp1526
btp1527
Rp1528
(dp1529
bg218
(g219
(g183
((I1
S'c706393c25ba9L'
p1530
I-49
I52
tp1531
tp1532
Rp1533
(dp1534
g189
I53
sbg349
tp1535
Rp1536
(dp1537
bg219
(g183
((I0
S'9ad708812df8dL'
p1538
I-54
I52
tp1539
tp1540
Rp1541
(dp1542
g189
I53
sbg1045
g262
tp1543
Rp1544
(dp1545
bg219
(g183
((I0
S'a24d9f25d4223L'
p1546
I-52
I52
tp1547
tp1548
Rp1549
(dp1550
g189
I53
sbg4
g1018
tp1551
Rp1552
(dp1553
bg219
(g183
((I0
S'13975839fc391dL'
p1554
I-57
I53
tp1555
tp1556
Rp1557
(dp1558
g189
I53
sbg1059
g293
tp1559
Rp1560
(dp1561
btp1562
Rp1563
(dp1564
btp1565
Rp1566
(dp1567
bg219
(g246
g330
g218
(g219
(g183
((I0
S'da793eee15fbfL'
p1568
I-59
I52
tp1569
tp1570
Rp1571
(dp1572
g189
I53
sbg1048
tp1573
Rp1574
(dp1575
bg219
(g183
((I1
S'1f68eb21d421e9L'
p1576
I-62
I53
tp1577
tp1578
Rp1579
(dp1580
g189
I53
sbg310
g1062
tp1581
Rp1582
(dp1583
btp1584
Rp1585
(dp1586
bg218
(g219
(g183
((I0
S'6c070df4060d1L'
p1587
I-60
I51
tp1588
tp1589
Rp1590
(dp1591
g189
I53
sbg533
tp1592
Rp1593
(dp1594
bg219
(g183
((I1
S'4a2b4072e0a55L'
p1595
I-48
I51
tp1596
tp1597
Rp1598
(dp1599
g189
I53
sbg1174
tp1600
Rp1601
(dp1602
bg219
(g183
((I1
S'6be6580e33f55L'
p1603
I-60
I51
tp1604
tp1605
Rp1606
(dp1607
g189
I53
sbg540
tp1608
Rp1609
(dp1610
bg219
(g183
((I1
S'82d797485efe1L'
p1611
I-70
I52
tp1612
tp1613
Rp1614
(dp1615
g189
I53
sbg526
tp1616
Rp1617
(dp1618
bg219
(g183
((I0
S'19a6f78586412fL'
p1619
I-57
I53
tp1620
tp1621
Rp1622
(dp1623
g189
I53
sbg1059
g1193
tp1624
Rp1625
(dp1626
bg219
(g183
((I1
S'9ad708812df8dL'
p1627
I-54
I52
tp1628
tp1629
Rp1630
(dp1631
g189
I53
sbg1204
g1048
tp1632
Rp1633
(dp1634
bg219
(g183
((I1
S'1e3dffa93afa99L'
p1635
I-54
I53
tp1636
tp1637
Rp1638
(dp1639
g189
I53
sbg4
g379
tp1640
Rp1641
(dp1642
btp1643
Rp1644
(dp1645
btp1646
Rp1647
(dp1648
bg219
(g246
g330
g218
(g219
(g183
((I0
S'1ca79d82cabf43L'
p1649
I-60
I53
tp1650
tp1651
Rp1652
(dp1653
g189
I53
sbg1062
tp1654
Rp1655
(dp1656
bg219
(g183
((I1
S'1f07f9f4bac24bL'
p1657
I-60
I53
tp1658
tp1659
Rp1660
(dp1661
g189
I53
sbg310
g1048
tp1662
Rp1663
(dp1664
btp1665
Rp1666
(dp1667
bg218
(g219
(g183
((I0
S'6be6580e33f55L'
p1668
I-60
I51
tp1669
tp1670
Rp1671
(dp1672
g189
I53
sbg540
tp1673
Rp1674
(dp1675
bg219
(g183
((I1
S'6be6580e33f55L'
p1676
I-60
I51
tp1677
tp1678
Rp1679
(dp1680
g189
I53
sbg533
tp1681
Rp1682
(dp1683
bg219
(g183
((I1
S'12c4bd458ce1b7L'
p1684
I-52
I53
tp1685
tp1686
Rp1687
(dp1688
g189
I53
sbg1289
tp1689
Rp1690
(dp1691
bg219
(g183
((I1
S'13975839fc391dL'
p1692
I-57
I53
tp1693
tp1694
Rp1695
(dp1696
g189
I53
sbg1204
g1062
tp1697
Rp1698
(dp1699
bg219
(g183
((I1
S'19a6f78586412fL'
p1700
I-57
I53
tp1701
tp1702
Rp1703
(dp1704
g189
I53
sbg1045
g1193
tp1705
Rp1706
(dp1707
bg219
(g183
((I1
S'1e9c79da9a193dL'
p1708
I-56
I53
tp1709
tp1710
Rp1711
(dp1712
g189
I53
sbg4
g409
tp1713
Rp1714
(dp1715
btp1716
Rp1717
(dp1718
btp1719
Rp1720
(dp1721
bg219
(g246
g225
(g327
g264
(I-2
tp1722
Rp1723
(dp1724
btp1725
Rp1726
(dp1727
bg1528
g218
(g219
(g183
((I1
S'842472f11b79dL'
p1728
I-60
I52
tp1729
tp1730
Rp1731
(dp1732
g189
I53
sbg262
g1048
tp1733
Rp1734
(dp1735
bg219
(g183
((I1
S'8c585bae390d1L'
p1736
I-62
I52
tp1737
tp1738
Rp1739
(dp1740
g189
I53
sbg293
g1062
tp1741
Rp1742
(dp1743
bg219
(g183
((I0
S'97fbfcd79f089L'
p1744
I-62
I52
tp1745
tp1746
Rp1747
(dp1748
g189
I53
sbg262
g310
g1062
tp1749
Rp1750
(dp1751
bg219
(g183
((I0
S'97fbfcd79f089L'
p1752
I-62
I52
tp1753
tp1754
Rp1755
(dp1756
g189
I53
sbg293
g310
g1048
tp1757
Rp1758
(dp1759
btp1760
Rp1761
(dp1762
bg218
(g219
(g183
((I0
S'1d4e721449adL'
p1763
I-52
I45
tp1764
tp1765
Rp1766
(dp1767
g189
I53
sbg526
tp1768
Rp1769
(dp1770
bg219
(g183
((I1
S'82d797485efe1L'
p1771
I-70
I52
tp1772
tp1773
Rp1774
(dp1775
g189
I53
sbg533
tp1776
Rp1777
(dp1778
bg219
(g183
((I1
S'c706393c25ba9L'
p1779
I-49
I52
tp1780
tp1781
Rp1782
(dp1783
g189
I53
sbg1018
tp1784
Rp1785
(dp1786
bg219
(g183
((I0
S'9ad708812df8dL'
p1787
I-54
I52
tp1788
tp1789
Rp1790
(dp1791
g189
I53
sbg1045
g1048
tp1792
Rp1793
(dp1794
bg219
(g183
((I0
S'13975839fc391dL'
p1795
I-57
I53
tp1796
tp1797
Rp1798
(dp1799
g189
I53
sbg1059
g1062
tp1800
Rp1801
(dp1802
bg219
(g183
((I1
S'a24d9f25d4223L'
p1803
I-52
I52
tp1804
tp1805
Rp1806
(dp1807
g189
I53
sbg4
g349
tp1808
Rp1809
(dp1810
btp1811
Rp1812
(dp1813
btp1814
Rp1815
(dp1816
bg219
(g246
g1726
g218
(g219
(g183
((I1
S'da793eee15fbfL'
p1817
I-59
I52
tp1818
tp1819
Rp1820
(dp1821
g189
I53
sbg262
tp1822
Rp1823
(dp1824
bg219
(g183
((I0
S'1f68eb21d421e9L'
p1825
I-62
I53
tp1826
tp1827
Rp1828
(dp1829
g189
I53
sbg293
g310
tp1830
Rp1831
(dp1832
btp1833
Rp1834
(dp1835
bg1761
g1644
tp1836
Rp1837
(dp1838
bg219
(g246
g1726
g218
(g219
(g183
((I1
S'1ca79d82cabf43L'
p1839
I-60
I53
tp1840
tp1841
Rp1842
(dp1843
g189
I53
sbg293
tp1844
Rp1845
(dp1846
bg219
(g183
((I0
S'1f07f9f4bac24bL'
p1847
I-60
I53
tp1848
tp1849
Rp1850
(dp1851
g189
I53
sbg262
g310
tp1852
Rp1853
(dp1854
btp1855
Rp1856
(dp1857
bg1761
g1717
tp1858
Rp1859
(dp1860
bg219
(g183
((I0
S'9ad708812df8dL'
p1861
I-54
I52
tp1862
tp1863
Rp1864
(dp1865
g189
I53
sbg1204
g330
g1834
g262
tp1866
Rp1867
(dp1868
bg219
(g183
((I0
S'13975839fc391dL'
p1869
I-57
I53
tp1870
tp1871
Rp1872
(dp1873
g189
I53
sbg1204
g330
g1856
g293
tp1874
Rp1875
(dp1876
btp1877
Rp1878
(dp1879
bag218
(g219
(g246
g330
g1834
g218
(g219
(g183
((I1
S'4a2b4072e0a55L'
p1880
I-48
I51
tp1881
tp1882
Rp1883
(dp1884
g189
I53
sbg379
tp1885
Rp1886
(dp1887
bg219
(g183
((I0
S'9ad708812df8dL'
p1888
I-54
I52
tp1889
tp1890
Rp1891
(dp1892
g189
I53
sbg1204
g262
tp1893
Rp1894
(dp1895
bg219
(g183
((I0
S'19a6f78586412fL'
p1896
I-57
I53
tp1897
tp1898
Rp1899
(dp1900
g189
I53
sbg1059
g310
tp1901
Rp1902
(dp1903
bg219
(g183
((I0
S'1e3dffa93afa99L'
p1904
I-54
I53
tp1905
tp1906
Rp1907
(dp1908
g189
I53
sbg4
g1174
tp1909
Rp1910
(dp1911
btp1912
Rp1913
(dp1914
btp1915
Rp1916
(dp1917
bg219
(g246
g330
g218
(g219
(g183
((I1
S'da793eee15fbfL'
p1918
I-59
I52
tp1919
tp1920
Rp1921
(dp1922
g189
I53
sbg1048
tp1923
Rp1924
(dp1925
bg219
(g183
((I1
S'1f68eb21d421e9L'
p1926
I-62
I53
tp1927
tp1928
Rp1929
(dp1930
g189
I53
sbg293
g1193
tp1931
Rp1932
(dp1933
btp1934
Rp1935
(dp1936
bg1644
tp1937
Rp1938
(dp1939
bg219
(g246
g330
g218
(g219
(g183
((I0
S'1f07f9f4bac24bL'
p1940
I-60
I53
tp1941
tp1942
Rp1943
(dp1944
g189
I53
sbg310
g1048
tp1945
Rp1946
(dp1947
bg219
(g183
((I1
S'1f07f9f4bac24bL'
p1948
I-60
I53
tp1949
tp1950
Rp1951
(dp1952
g189
I53
sbg262
g1193
tp1953
Rp1954
(dp1955
btp1956
Rp1957
(dp1958
bg1717
tp1959
Rp1960
(dp1961
bg219
(g246
g1726
g1528
g218
(g219
(g183
((I0
S'842472f11b79dL'
p1962
I-60
I52
tp1963
tp1964
Rp1965
(dp1966
g189
I53
sbg262
g1048
tp1967
Rp1968
(dp1969
bg219
(g183
((I1
S'10a2e0714ba6b5L'
p1970
I-62
I53
tp1971
tp1972
Rp1973
(dp1974
g189
I53
sbg310
g1193
tp1975
Rp1976
(dp1977
bg219
(g183
((I0
S'97fbfcd79f089L'
p1978
I-62
I52
tp1979
tp1980
Rp1981
(dp1982
g189
I53
sbg262
g293
g1193
tp1983
Rp1984
(dp1985
bg219
(g183
((I1
S'97fbfcd79f089L'
p1986
I-62
I52
tp1987
tp1988
Rp1989
(dp1990
g189
I53
sbg293
g310
g1048
tp1991
Rp1992
(dp1993
btp1994
Rp1995
(dp1996
bg1812
tp1997
Rp1998
(dp1999
bg219
(g246
g1726
g1834
g1995
g1644
tp2000
Rp2001
(dp2002
bg219
(g246
g1726
g1856
g1995
g1717
tp2003
Rp2004
(dp2005
bg219
(g183
((I0
S'9ad708812df8dL'
p2006
I-54
I52
tp2007
tp2008
Rp2009
(dp2010
g189
I53
sbg1045
g330
g1528
g262
tp2011
Rp2012
(dp2013
bg219
(g183
((I0
S'19a6f78586412fL'
p2014
I-57
I53
tp2015
tp2016
Rp2017
(dp2018
g189
I53
sbg1045
g330
g1856
g310
tp2019
Rp2020
(dp2021
bg219
(g183
((I1
S'149049f025ae33L'
p2022
I-60
I53
tp2023
tp2024
Rp2025
(dp2026
g189
I53
sbg330
g1812
g310
g1193
tp2027
Rp2028
(dp2029
btp2030
Rp2031
(dp2032
bag218
(g219
(g246
g330
g1856
g218
(g219
(g183
((I1
S'12c4bd458ce1b7L'
p2033
I-52
I53
tp2034
tp2035
Rp2036
(dp2037
g189
I53
sbg409
tp2038
Rp2039
(dp2040
bg219
(g183
((I0
S'13975839fc391dL'
p2041
I-57
I53
tp2042
tp2043
Rp2044
(dp2045
g189
I53
sbg1204
g293
tp2046
Rp2047
(dp2048
bg219
(g183
((I0
S'19a6f78586412fL'
p2049
I-57
I53
tp2050
tp2051
Rp2052
(dp2053
g189
I53
sbg1045
g310
tp2054
Rp2055
(dp2056
bg219
(g183
((I0
S'1e9c79da9a193dL'
p2057
I-56
I53
tp2058
tp2059
Rp2060
(dp2061
g189
I53
sbg4
g1289
tp2062
Rp2063
(dp2064
btp2065
Rp2066
(dp2067
btp2068
Rp2069
(dp2070
bg219
(g246
g330
g218
(g219
(g183
((I1
S'1ca79d82cabf43L'
p2071
I-60
I53
tp2072
tp2073
Rp2074
(dp2075
g189
I53
sbg1062
tp2076
Rp2077
(dp2078
bg219
(g183
((I0
S'1f07f9f4bac24bL'
p2079
I-60
I53
tp2080
tp2081
Rp2082
(dp2083
g189
I53
sbg262
g1193
tp2084
Rp2085
(dp2086
btp2087
Rp2088
(dp2089
bg1717
tp2090
Rp2091
(dp2092
bg219
(g246
g330
g218
(g219
(g183
((I0
S'1f68eb21d421e9L'
p2093
I-62
I53
tp2094
tp2095
Rp2096
(dp2097
g189
I53
sbg293
g1193
tp2098
Rp2099
(dp2100
bg219
(g183
((I0
S'1f68eb21d421e9L'
p2101
I-62
I53
tp2102
tp2103
Rp2104
(dp2105
g189
I53
sbg310
g1062
tp2106
Rp2107
(dp2108
btp2109
Rp2110
(dp2111
bg1644
tp2112
Rp2113
(dp2114
bg219
(g246
g1726
g1528
g218
(g219
(g183
((I0
S'8c585bae390d1L'
p2115
I-62
I52
tp2116
tp2117
Rp2118
(dp2119
g189
I53
sbg293
g1062
tp2120
Rp2121
(dp2122
bg219
(g183
((I0
S'10a2e0714ba6b5L'
p2123
I-62
I53
tp2124
tp2125
Rp2126
(dp2127
g189
I53
sbg310
g1193
tp2128
Rp2129
(dp2130
bg219
(g183
((I1
S'97fbfcd79f089L'
p2131
I-62
I52
tp2132
tp2133
Rp2134
(dp2135
g189
I53
sbg262
g293
g1193
tp2136
Rp2137
(dp2138
bg219
(g183
((I1
S'97fbfcd79f089L'
p2139
I-62
I52
tp2140
tp2141
Rp2142
(dp2143
g189
I53
sbg262
g310
g1062
tp2144
Rp2145
(dp2146
btp2147
Rp2148
(dp2149
bg1812
tp2150
Rp2151
(dp2152
bg219
(g246
g1726
g1834
g2148
g1644
tp2153
Rp2154
(dp2155
bg219
(g246
g1726
g1856
g2148
g1717
tp2156
Rp2157
(dp2158
bg219
(g183
((I0
S'13975839fc391dL'
p2159
I-57
I53
tp2160
tp2161
Rp2162
(dp2163
g189
I53
sbg1059
g330
g1528
g293
tp2164
Rp2165
(dp2166
bg219
(g183
((I0
S'149049f025ae33L'
p2167
I-60
I53
tp2168
tp2169
Rp2170
(dp2171
g189
I53
sbg330
g1812
g310
g1193
tp2172
Rp2173
(dp2174
bg219
(g183
((I0
S'19a6f78586412fL'
p2175
I-57
I53
tp2176
tp2177
Rp2178
(dp2179
g189
I53
sbg1059
g330
g1834
g310
tp2180
Rp2181
(dp2182
btp2183
Rp2184
(dp2185
bag181
ag218
(g219
(g183
((I1
S'1d4e721449adL'
p2186
I-52
I45
tp2187
tp2188
Rp2189
(dp2190
g189
I53
sbg330
g1528
tp2191
Rp2192
(dp2193
bg219
(g246
g330
g218
(g183
((I1
S'82d797485efe1L'
p2194
I-70
I52
tp2195
tp2196
Rp2197
(dp2198
g189
I53
sbg219
(g183
((I1
S'9ad708812df8dL'
p2199
I-53
I52
tp2200
tp2201
Rp2202
(dp2203
g189
I53
sbg526
g1048
tp2204
Rp2205
(dp2206
btp2207
Rp2208
(dp2209
bg1834
tp2210
Rp2211
(dp2212
bg219
(g183
((I0
S'13975839fc391dL'
p2213
I-56
I53
tp2214
tp2215
Rp2216
(dp2217
g189
I53
sbg526
g330
g1856
g1062
tp2218
Rp2219
(dp2220
btp2221
Rp2222
(dp2223
bag218
(g219
(g183
((I1
S'6c070df4060d1L'
p2224
I-60
I51
tp2225
tp2226
Rp2227
(dp2228
g189
I53
sbg330
g1834
tp2229
Rp2230
(dp2231
bg219
(g246
g330
g1528
g218
(g183
((I1
S'82d797485efe1L'
p2232
I-70
I52
tp2233
tp2234
Rp2235
(dp2236
g189
I53
sbg219
(g183
((I0
S'9ad708812df8dL'
p2237
I-53
I52
tp2238
tp2239
Rp2240
(dp2241
g189
I53
sbg533
g1048
tp2242
Rp2243
(dp2244
btp2245
Rp2246
(dp2247
btp2248
Rp2249
(dp2250
bg219
(g246
g330
g218
(g183
((I1
S'6be6580e33f55L'
p2251
I-60
I51
tp2252
tp2253
Rp2254
(dp2255
g189
I53
sbg219
(g183
((I1
S'19a6f78586412fL'
p2256
I-56
I53
tp2257
tp2258
Rp2259
(dp2260
g189
I53
sbg533
g1193
tp2261
Rp2262
(dp2263
btp2264
Rp2265
(dp2266
bg1856
tp2267
Rp2268
(dp2269
btp2270
Rp2271
(dp2272
bag218
(g219
(g183
((I1
S'6be6580e33f55L'
p2273
I-60
I51
tp2274
tp2275
Rp2276
(dp2277
g189
I53
sbg330
g1856
tp2278
Rp2279
(dp2280
bg219
(g246
g330
g218
(g183
((I1
S'6be6580e33f55L'
p2281
I-60
I51
tp2282
tp2283
Rp2284
(dp2285
g189
I53
sbg219
(g183
((I0
S'19a6f78586412fL'
p2286
I-56
I53
tp2287
tp2288
Rp2289
(dp2290
g189
I53
sbg540
g1193
tp2291
Rp2292
(dp2293
btp2294
Rp2295
(dp2296
bg1834
tp2297
Rp2298
(dp2299
bg219
(g183
((I1
S'13975839fc391dL'
p2300
I-56
I53
tp2301
tp2302
Rp2303
(dp2304
g189
I53
sbg540
g330
g1528
g1062
tp2305
Rp2306
(dp2307
btp2308
Rp2309
(dp2310
bag181
ag218
(g219
(g246
g330
g218
(g219
(g183
((I0
S'da793eee15fbfL'
p2311
I-59
I52
tp2312
tp2313
Rp2314
(dp2315
g189
I53
sbg1048
tp2316
Rp2317
(dp2318
bg219
(g183
((I1
S'1f68eb21d421e9L'
p2319
I-62
I53
tp2320
tp2321
Rp2322
(dp2323
g189
I53
sbg310
g1062
tp2324
Rp2325
(dp2326
btp2327
Rp2328
(dp2329
bg1812
tp2330
Rp2331
(dp2332
bg219
(g246
g330
g1834
g218
(g219
(g183
((I1
S'c706393c25ba9L'
p2333
I-49
I52
tp2334
tp2335
Rp2336
(dp2337
g189
I53
sbg349
tp2338
Rp2339
(dp2340
bg219
(g183
((I0
S'9ad708812df8dL'
p2341
I-54
I52
tp2342
tp2343
Rp2344
(dp2345
g189
I53
sbg1045
g262
tp2346
Rp2347
(dp2348
bg219
(g183
((I0
S'a24d9f25d4223L'
p2349
I-52
I52
tp2350
tp2351
Rp2352
(dp2353
g189
I53
sbg4
g1018
tp2354
Rp2355
(dp2356
bg219
(g183
((I0
S'13975839fc391dL'
p2357
I-57
I53
tp2358
tp2359
Rp2360
(dp2361
g189
I53
sbg1059
g293
tp2362
Rp2363
(dp2364
btp2365
Rp2366
(dp2367
btp2368
Rp2369
(dp2370
bg219
(g246
g330
g218
(g219
(g183
((I1
S'17b2ffa92fee33L'
p2371
I-60
I53
tp2372
tp2373
Rp2374
(dp2375
g189
I53
sbg262
g1062
tp2376
Rp2377
(dp2378
bg219
(g183
((I1
S'17b2ffa92fee33L'
p2379
I-60
I53
tp2380
tp2381
Rp2382
(dp2383
g189
I53
sbg293
g1048
tp2384
Rp2385
(dp2386
btp2387
Rp2388
(dp2389
bg1717
tp2390
Rp2391
(dp2392
bg219
(g246
g1726
g218
(g183
((I0
S'921c459d963b3L'
p2393
I-58
I52
tp2394
tp2395
Rp2396
(dp2397
g189
I53
sbg219
(g183
((I1
S'5ff424738ffc1L'
p2398
I-60
I51
tp2399
tp2400
Rp2401
(dp2402
g189
I53
sbg296
tp2403
Rp2404
(dp2405
btp2406
Rp2407
(dp2408
bg218
(g219
(g183
((I1
S'842472f11b79dL'
p2409
I-60
I52
tp2410
tp2411
Rp2412
(dp2413
g189
I53
sbg262
g1048
tp2414
Rp2415
(dp2416
bg219
(g183
((I1
S'8c585bae390d1L'
p2417
I-62
I52
tp2418
tp2419
Rp2420
(dp2421
g189
I53
sbg293
g1062
tp2422
Rp2423
(dp2424
bg219
(g183
((I0
S'97fbfcd79f089L'
p2425
I-62
I52
tp2426
tp2427
Rp2428
(dp2429
g189
I53
sbg262
g310
g1062
tp2430
Rp2431
(dp2432
bg219
(g183
((I0
S'97fbfcd79f089L'
p2433
I-62
I52
tp2434
tp2435
Rp2436
(dp2437
g189
I53
sbg293
g310
g1048
tp2438
Rp2439
(dp2440
btp2441
Rp2442
(dp2443
bg1644
tp2444
Rp2445
(dp2446
bg219
(g246
g1726
g471
g2442
g1717
tp2447
Rp2448
(dp2449
bg219
(g246
g1726
g1834
g2442
g1812
tp2450
Rp2451
(dp2452
bg219
(g183
((I0
S'9ad708812df8dL'
p2453
I-54
I52
tp2454
tp2455
Rp2456
(dp2457
g189
I53
sbg1204
g330
g2407
g262
tp2458
Rp2459
(dp2460
bg219
(g183
((I0
S'13975839fc391dL'
p2461
I-57
I53
tp2462
tp2463
Rp2464
(dp2465
g189
I53
sbg1204
g330
g471
g293
tp2466
Rp2467
(dp2468
bg219
(g183
((I1
S'5ff424738ffc1L'
p2469
I-59
I51
tp2470
tp2471
Rp2472
(dp2473
g189
I53
sbg330
g1644
g293
g1062
tp2474
Rp2475
(dp2476
btp2477
Rp2478
(dp2479
bag218
(g219
(g246
g330
g2407
g218
(g219
(g183
((I1
S'4a2b4072e0a55L'
p2480
I-48
I51
tp2481
tp2482
Rp2483
(dp2484
g189
I53
sbg379
tp2485
Rp2486
(dp2487
bg219
(g183
((I0
S'9ad708812df8dL'
p2488
I-54
I52
tp2489
tp2490
Rp2491
(dp2492
g189
I53
sbg1204
g262
tp2493
Rp2494
(dp2495
bg219
(g183
((I0
S'19a6f78586412fL'
p2496
I-57
I53
tp2497
tp2498
Rp2499
(dp2500
g189
I53
sbg1059
g310
tp2501
Rp2502
(dp2503
bg219
(g183
((I0
S'1e3dffa93afa99L'
p2504
I-54
I53
tp2505
tp2506
Rp2507
(dp2508
g189
I53
sbg4
g1174
tp2509
Rp2510
(dp2511
btp2512
Rp2513
(dp2514
btp2515
Rp2516
(dp2517
bg219
(g246
g330
g218
(g219
(g183
((I0
S'a606143a8eb55L'
p2518
I-58
I52
tp2519
tp2520
Rp2521
(dp2522
g189
I53
sbg1193
tp2523
Rp2524
(dp2525
bg219
(g183
((I0
S'17b2ffa92fee33L'
p2526
I-60
I53
tp2527
tp2528
Rp2529
(dp2530
g189
I53
sbg293
g1048
tp2531
Rp2532
(dp2533
btp2534
Rp2535
(dp2536
bg1717
tp2537
Rp2538
(dp2539
bg219
(g246
g330
g218
(g219
(g183
((I1
S'da793eee15fbfL'
p2540
I-59
I52
tp2541
tp2542
Rp2543
(dp2544
g189
I53
sbg1048
tp2545
Rp2546
(dp2547
bg219
(g183
((I1
S'1f68eb21d421e9L'
p2548
I-62
I53
tp2549
tp2550
Rp2551
(dp2552
g189
I53
sbg293
g1193
tp2553
Rp2554
(dp2555
btp2556
Rp2557
(dp2558
bg1812
tp2559
Rp2560
(dp2561
bg219
(g246
g1726
g2407
g218
(g219
(g183
((I0
S'842472f11b79dL'
p2562
I-60
I52
tp2563
tp2564
Rp2565
(dp2566
g189
I53
sbg262
g1048
tp2567
Rp2568
(dp2569
bg219
(g183
((I1
S'10a2e0714ba6b5L'
p2570
I-62
I53
tp2571
tp2572
Rp2573
(dp2574
g189
I53
sbg310
g1193
tp2575
Rp2576
(dp2577
bg219
(g183
((I0
S'97fbfcd79f089L'
p2578
I-62
I52
tp2579
tp2580
Rp2581
(dp2582
g189
I53
sbg262
g293
g1193
tp2583
Rp2584
(dp2585
bg219
(g183
((I1
S'97fbfcd79f089L'
p2586
I-62
I52
tp2587
tp2588
Rp2589
(dp2590
g189
I53
sbg293
g310
g1048
tp2591
Rp2592
(dp2593
btp2594
Rp2595
(dp2596
bg1644
tp2597
Rp2598
(dp2599
bg219
(g246
g1726
g471
g2595
g1717
tp2600
Rp2601
(dp2602
bg219
(g246
g1726
g1834
g2595
g1812
tp2603
Rp2604
(dp2605
bg219
(g183
((I0
S'9ad708812df8dL'
p2606
I-54
I52
tp2607
tp2608
Rp2609
(dp2610
g189
I53
sbg1045
g330
g1834
g262
tp2611
Rp2612
(dp2613
bg219
(g183
((I0
S'19a6f78586412fL'
p2614
I-57
I53
tp2615
tp2616
Rp2617
(dp2618
g189
I53
sbg1045
g330
g471
g310
tp2619
Rp2620
(dp2621
btp2622
Rp2623
(dp2624
bag218
(g219
(g246
g330
g471
g218
(g219
(g183
((I1
S'12c4bd458ce1b7L'
p2625
I-52
I53
tp2626
tp2627
Rp2628
(dp2629
g189
I53
sbg409
tp2630
Rp2631
(dp2632
bg219
(g183
((I0
S'13975839fc391dL'
p2633
I-57
I53
tp2634
tp2635
Rp2636
(dp2637
g189
I53
sbg1204
g293
tp2638
Rp2639
(dp2640
bg219
(g183
((I0
S'19a6f78586412fL'
p2641
I-57
I53
tp2642
tp2643
Rp2644
(dp2645
g189
I53
sbg1045
g310
tp2646
Rp2647
(dp2648
bg219
(g183
((I0
S'1e9c79da9a193dL'
p2649
I-56
I53
tp2650
tp2651
Rp2652
(dp2653
g189
I53
sbg4
g1289
tp2654
Rp2655
(dp2656
btp2657
Rp2658
(dp2659
btp2660
Rp2661
(dp2662
bg219
(g246
g330
g218
(g219
(g183
((I1
S'a606143a8eb55L'
p2663
I-58
I52
tp2664
tp2665
Rp2666
(dp2667
g189
I53
sbg1193
tp2668
Rp2669
(dp2670
bg219
(g183
((I0
S'17b2ffa92fee33L'
p2671
I-60
I53
tp2672
tp2673
Rp2674
(dp2675
g189
I53
sbg262
g1062
tp2676
Rp2677
(dp2678
btp2679
Rp2680
(dp2681
bg1717
tp2682
Rp2683
(dp2684
bg219
(g246
g330
g218
(g219
(g183
((I0
S'1f68eb21d421e9L'
p2685
I-62
I53
tp2686
tp2687
Rp2688
(dp2689
g189
I53
sbg293
g1193
tp2690
Rp2691
(dp2692
bg219
(g183
((I0
S'1f68eb21d421e9L'
p2693
I-62
I53
tp2694
tp2695
Rp2696
(dp2697
g189
I53
sbg310
g1062
tp2698
Rp2699
(dp2700
btp2701
Rp2702
(dp2703
bg1812
tp2704
Rp2705
(dp2706
bg219
(g246
g1726
g2407
g218
(g219
(g183
((I0
S'8c585bae390d1L'
p2707
I-62
I52
tp2708
tp2709
Rp2710
(dp2711
g189
I53
sbg293
g1062
tp2712
Rp2713
(dp2714
bg219
(g183
((I0
S'10a2e0714ba6b5L'
p2715
I-62
I53
tp2716
tp2717
Rp2718
(dp2719
g189
I53
sbg310
g1193
tp2720
Rp2721
(dp2722
bg219
(g183
((I1
S'97fbfcd79f089L'
p2723
I-62
I52
tp2724
tp2725
Rp2726
(dp2727
g189
I53
sbg262
g293
g1193
tp2728
Rp2729
(dp2730
bg219
(g183
((I1
S'97fbfcd79f089L'
p2731
I-62
I52
tp2732
tp2733
Rp2734
(dp2735
g189
I53
sbg262
g310
g1062
tp2736
Rp2737
(dp2738
btp2739
Rp2740
(dp2741
bg1644
tp2742
Rp2743
(dp2744
bg219
(g246
g1726
g471
g2740
g1717
tp2745
Rp2746
(dp2747
bg219
(g246
g1726
g1834
g2740
g1812
tp2748
Rp2749
(dp2750
bg219
(g183
((I0
S'5ff424738ffc1L'
p2751
I-59
I51
tp2752
tp2753
Rp2754
(dp2755
g189
I53
sbg330
g1644
g293
g1062
tp2756
Rp2757
(dp2758
bg219
(g183
((I0
S'13975839fc391dL'
p2759
I-57
I53
tp2760
tp2761
Rp2762
(dp2763
g189
I53
sbg1059
g330
g1834
g293
tp2764
Rp2765
(dp2766
bg219
(g183
((I0
S'19a6f78586412fL'
p2767
I-57
I53
tp2768
tp2769
Rp2770
(dp2771
g189
I53
sbg1059
g330
g2407
g310
tp2772
Rp2773
(dp2774
btp2775
Rp2776
(dp2777
bag181
ag218
(g219
(g183
((I1
S'1d4e721449adL'
p2778
I-52
I45
tp2779
tp2780
Rp2781
(dp2782
g189
I53
sbg330
g1834
tp2783
Rp2784
(dp2785
bg219
(g246
g330
g2407
g218
(g183
((I1
S'82d797485efe1L'
p2786
I-70
I52
tp2787
tp2788
Rp2789
(dp2790
g189
I53
sbg219
(g183
((I1
S'9ad708812df8dL'
p2791
I-53
I52
tp2792
tp2793
Rp2794
(dp2795
g189
I53
sbg526
g1048
tp2796
Rp2797
(dp2798
btp2799
Rp2800
(dp2801
btp2802
Rp2803
(dp2804
bg219
(g183
((I0
S'13975839fc391dL'
p2805
I-56
I53
tp2806
tp2807
Rp2808
(dp2809
g189
I53
sbg526
g330
g471
g1062
tp2810
Rp2811
(dp2812
btp2813
Rp2814
(dp2815
bag218
(g219
(g183
((I1
S'6c070df4060d1L'
p2816
I-60
I51
tp2817
tp2818
Rp2819
(dp2820
g189
I53
sbg330
g2407
tp2821
Rp2822
(dp2823
bg219
(g246
g330
g218
(g183
((I1
S'6be6580e33f55L'
p2824
I-60
I51
tp2825
tp2826
Rp2827
(dp2828
g189
I53
sbg219
(g183
((I1
S'19a6f78586412fL'
p2829
I-56
I53
tp2830
tp2831
Rp2832
(dp2833
g189
I53
sbg533
g1193
tp2834
Rp2835
(dp2836
btp2837
Rp2838
(dp2839
bg471
tp2840
Rp2841
(dp2842
bg219
(g246
g330
g218
(g183
((I1
S'82d797485efe1L'
p2843
I-70
I52
tp2844
tp2845
Rp2846
(dp2847
g189
I53
sbg219
(g183
((I0
S'9ad708812df8dL'
p2848
I-53
I52
tp2849
tp2850
Rp2851
(dp2852
g189
I53
sbg533
g1048
tp2853
Rp2854
(dp2855
btp2856
Rp2857
(dp2858
bg1834
tp2859
Rp2860
(dp2861
btp2862
Rp2863
(dp2864
bag218
(g219
(g183
((I1
S'6be6580e33f55L'
p2865
I-60
I51
tp2866
tp2867
Rp2868
(dp2869
g189
I53
sbg330
g471
tp2870
Rp2871
(dp2872
bg219
(g246
g330
g2407
g218
(g183
((I1
S'6be6580e33f55L'
p2873
I-60
I51
tp2874
tp2875
Rp2876
(dp2877
g189
I53
sbg219
(g183
((I0
S'19a6f78586412fL'
p2878
I-56
I53
tp2879
tp2880
Rp2881
(dp2882
g189
I53
sbg540
g1193
tp2883
Rp2884
(dp2885
btp2886
Rp2887
(dp2888
btp2889
Rp2890
(dp2891
bg219
(g183
((I1
S'13975839fc391dL'
p2892
I-56
I53
tp2893
tp2894
Rp2895
(dp2896
g189
I53
sbg540
g330
g1834
g1062
tp2897
Rp2898
(dp2899
btp2900
Rp2901
(dp2902
bag181
ag218
(g219
(g246
g330
g218
(g219
(g183
((I0
S'1ca79d82cabf43L'
p2903
I-60
I53
tp2904
tp2905
Rp2906
(dp2907
g189
I53
sbg1062
tp2908
Rp2909
(dp2910
bg219
(g183
((I1
S'1f07f9f4bac24bL'
p2911
I-60
I53
tp2912
tp2913
Rp2914
(dp2915
g189
I53
sbg310
g1048
tp2916
Rp2917
(dp2918
btp2919
Rp2920
(dp2921
bg218
(g219
(g183
((I0
S'1d4e721449adL'
p2922
I-52
I45
tp2923
tp2924
Rp2925
(dp2926
g189
I53
sbg526
tp2927
Rp2928
(dp2929
bg219
(g183
((I1
S'82d797485efe1L'
p2930
I-70
I52
tp2931
tp2932
Rp2933
(dp2934
g189
I53
sbg533
tp2935
Rp2936
(dp2937
bg219
(g183
((I1
S'c706393c25ba9L'
p2938
I-49
I52
tp2939
tp2940
Rp2941
(dp2942
g189
I53
sbg1018
tp2943
Rp2944
(dp2945
bg219
(g1790
g1045
g1048
tp2946
Rp2947
(dp2948
bg219
(g183
((I0
S'13975839fc391dL'
p2949
I-57
I53
tp2950
tp2951
Rp2952
(dp2953
g189
I53
sbg1059
g1062
tp2954
Rp2955
(dp2956
bg219
(g1806
g4
g349
tp2957
Rp2958
(dp2959
btp2960
Rp2961
(dp2962
btp2963
Rp2964
(dp2965
bg219
(g246
g330
g406
g218
(g219
(g183
((I1
S'c706393c25ba9L'
p2966
I-49
I52
tp2967
tp2968
Rp2969
(dp2970
g189
I53
sbg349
tp2971
Rp2972
(dp2973
bg219
(g183
((I0
S'9ad708812df8dL'
p2974
I-54
I52
tp2975
tp2976
Rp2977
(dp2978
g189
I53
sbg1045
g262
tp2979
Rp2980
(dp2981
bg219
(g183
((I0
S'a24d9f25d4223L'
p2982
I-52
I52
tp2983
tp2984
Rp2985
(dp2986
g189
I53
sbg4
g1018
tp2987
Rp2988
(dp2989
bg219
(g183
((I0
S'13975839fc391dL'
p2990
I-57
I53
tp2991
tp2992
Rp2993
(dp2994
g189
I53
sbg1059
g293
tp2995
Rp2996
(dp2997
btp2998
Rp2999
(dp3000
btp3001
Rp3002
(dp3003
bg219
(g246
g330
g218
(g219
(g183
((I1
S'17b2ffa92fee33L'
p3004
I-60
I53
tp3005
tp3006
Rp3007
(dp3008
g189
I53
sbg262
g1062
tp3009
Rp3010
(dp3011
bg219
(g183
((I1
S'17b2ffa92fee33L'
p3012
I-60
I53
tp3013
tp3014
Rp3015
(dp3016
g189
I53
sbg293
g1048
tp3017
Rp3018
(dp3019
btp3020
Rp3021
(dp3022
bg218
(g219
(g183
((I0
S'6c070df4060d1L'
p3023
I-60
I51
tp3024
tp3025
Rp3026
(dp3027
g189
I53
sbg533
tp3028
Rp3029
(dp3030
bg219
(g183
((I1
S'4a2b4072e0a55L'
p3031
I-48
I51
tp3032
tp3033
Rp3034
(dp3035
g189
I53
sbg1174
tp3036
Rp3037
(dp3038
bg219
(g183
((I1
S'6be6580e33f55L'
p3039
I-60
I51
tp3040
tp3041
Rp3042
(dp3043
g189
I53
sbg540
tp3044
Rp3045
(dp3046
bg219
(g183
((I1
S'82d797485efe1L'
p3047
I-70
I52
tp3048
tp3049
Rp3050
(dp3051
g189
I53
sbg526
tp3052
Rp3053
(dp3054
bg219
(g183
((I0
S'19a6f78586412fL'
p3055
I-57
I53
tp3056
tp3057
Rp3058
(dp3059
g189
I53
sbg1059
g1193
tp3060
Rp3061
(dp3062
bg219
(g1630
g1204
g1048
tp3063
Rp3064
(dp3065
bg219
(g1638
g4
g379
tp3066
Rp3067
(dp3068
btp3069
Rp3070
(dp3071
btp3072
Rp3073
(dp3074
bg219
(g246
g1726
g514
g218
(g219
(g183
((I1
S'842472f11b79dL'
p3075
I-60
I52
tp3076
tp3077
Rp3078
(dp3079
g189
I53
sbg262
g1048
tp3080
Rp3081
(dp3082
bg219
(g183
((I1
S'8c585bae390d1L'
p3083
I-62
I52
tp3084
tp3085
Rp3086
(dp3087
g189
I53
sbg293
g1062
tp3088
Rp3089
(dp3090
bg219
(g183
((I0
S'97fbfcd79f089L'
p3091
I-62
I52
tp3092
tp3093
Rp3094
(dp3095
g189
I53
sbg262
g310
g1062
tp3096
Rp3097
(dp3098
bg219
(g183
((I0
S'97fbfcd79f089L'
p3099
I-62
I52
tp3100
tp3101
Rp3102
(dp3103
g189
I53
sbg293
g310
g1048
tp3104
Rp3105
(dp3106
btp3107
Rp3108
(dp3109
bg218
(g219
(g183
((I0
S'6be6580e33f55L'
p3110
I-60
I51
tp3111
tp3112
Rp3113
(dp3114
g189
I53
sbg540
tp3115
Rp3116
(dp3117
bg219
(g183
((I1
S'6be6580e33f55L'
p3118
I-60
I51
tp3119
tp3120
Rp3121
(dp3122
g189
I53
sbg533
tp3123
Rp3124
(dp3125
bg219
(g183
((I1
S'12c4bd458ce1b7L'
p3126
I-52
I53
tp3127
tp3128
Rp3129
(dp3130
g189
I53
sbg1289
tp3131
Rp3132
(dp3133
bg219
(g183
((I1
S'13975839fc391dL'
p3134
I-57
I53
tp3135
tp3136
Rp3137
(dp3138
g189
I53
sbg1204
g1062
tp3139
Rp3140
(dp3141
bg219
(g183
((I1
S'19a6f78586412fL'
p3142
I-57
I53
tp3143
tp3144
Rp3145
(dp3146
g189
I53
sbg1045
g1193
tp3147
Rp3148
(dp3149
bg219
(g183
((I1
S'1e9c79da9a193dL'
p3150
I-56
I53
tp3151
tp3152
Rp3153
(dp3154
g189
I53
sbg4
g409
tp3155
Rp3156
(dp3157
btp3158
Rp3159
(dp3160
btp3161
Rp3162
(dp3163
bg219
(g246
g1726
g471
g3108
g3070
tp3164
Rp3165
(dp3166
bg219
(g246
g1726
g406
g3108
g2961
tp3167
Rp3168
(dp3169
bg219
(g183
((I0
S'9ad708812df8dL'
p3170
I-54
I52
tp3171
tp3172
Rp3173
(dp3174
g189
I53
sbg1204
g330
g471
g262
tp3175
Rp3176
(dp3177
bg219
(g183
((I0
S'13975839fc391dL'
p3178
I-57
I53
tp3179
tp3180
Rp3181
(dp3182
g189
I53
sbg1204
g330
g514
g293
tp3183
Rp3184
(dp3185
bg219
(g183
((I1
S'bb4ed5b56925dL'
p3186
I-56
I52
tp3187
tp3188
Rp3189
(dp3190
g189
I53
sbg330
g3159
g262
g1048
tp3191
Rp3192
(dp3193
btp3194
Rp3195
(dp3196
bag218
(g219
(g246
g330
g218
(g219
(g183
((I0
S'a606143a8eb55L'
p3197
I-58
I52
tp3198
tp3199
Rp3200
(dp3201
g189
I53
sbg1193
tp3202
Rp3203
(dp3204
bg219
(g183
((I0
S'17b2ffa92fee33L'
p3205
I-60
I53
tp3206
tp3207
Rp3208
(dp3209
g189
I53
sbg293
g1048
tp3210
Rp3211
(dp3212
btp3213
Rp3214
(dp3215
bg3070
tp3216
Rp3217
(dp3218
bg219
(g246
g330
g471
g218
(g219
(g183
((I1
S'4a2b4072e0a55L'
p3219
I-48
I51
tp3220
tp3221
Rp3222
(dp3223
g189
I53
sbg379
tp3224
Rp3225
(dp3226
bg219
(g183
((I0
S'9ad708812df8dL'
p3227
I-54
I52
tp3228
tp3229
Rp3230
(dp3231
g189
I53
sbg1204
g262
tp3232
Rp3233
(dp3234
bg219
(g183
((I0
S'19a6f78586412fL'
p3235
I-57
I53
tp3236
tp3237
Rp3238
(dp3239
g189
I53
sbg1059
g310
tp3240
Rp3241
(dp3242
bg219
(g183
((I0
S'1e3dffa93afa99L'
p3243
I-54
I53
tp3244
tp3245
Rp3246
(dp3247
g189
I53
sbg4
g1174
tp3248
Rp3249
(dp3250
btp3251
Rp3252
(dp3253
btp3254
Rp3255
(dp3256
bg219
(g246
g330
g218
(g219
(g183
((I0
S'1f07f9f4bac24bL'
p3257
I-60
I53
tp3258
tp3259
Rp3260
(dp3261
g189
I53
sbg310
g1048
tp3262
Rp3263
(dp3264
bg219
(g183
((I1
S'1f07f9f4bac24bL'
p3265
I-60
I53
tp3266
tp3267
Rp3268
(dp3269
g189
I53
sbg262
g1193
tp3270
Rp3271
(dp3272
btp3273
Rp3274
(dp3275
bg2961
tp3276
Rp3277
(dp3278
bg219
(g246
g1726
g514
g218
(g219
(g183
((I0
S'842472f11b79dL'
p3279
I-60
I52
tp3280
tp3281
Rp3282
(dp3283
g189
I53
sbg262
g1048
tp3284
Rp3285
(dp3286
bg219
(g183
((I1
S'10a2e0714ba6b5L'
p3287
I-62
I53
tp3288
tp3289
Rp3290
(dp3291
g189
I53
sbg310
g1193
tp3292
Rp3293
(dp3294
bg219
(g183
((I0
S'97fbfcd79f089L'
p3295
I-62
I52
tp3296
tp3297
Rp3298
(dp3299
g189
I53
sbg262
g293
g1193
tp3300
Rp3301
(dp3302
bg219
(g183
((I1
S'97fbfcd79f089L'
p3303
I-62
I52
tp3304
tp3305
Rp3306
(dp3307
g189
I53
sbg293
g310
g1048
tp3308
Rp3309
(dp3310
btp3311
Rp3312
(dp3313
bg3159
tp3314
Rp3315
(dp3316
bg219
(g246
g1726
g471
g3312
g3070
tp3317
Rp3318
(dp3319
bg219
(g246
g1726
g406
g3312
g2961
tp3320
Rp3321
(dp3322
bg219
(g183
((I0
S'9ad708812df8dL'
p3323
I-54
I52
tp3324
tp3325
Rp3326
(dp3327
g189
I53
sbg1045
g330
g406
g262
tp3328
Rp3329
(dp3330
bg219
(g183
((I0
S'bb4ed5b56925dL'
p3331
I-56
I52
tp3332
tp3333
Rp3334
(dp3335
g189
I53
sbg330
g3159
g262
g1048
tp3336
Rp3337
(dp3338
bg219
(g183
((I0
S'19a6f78586412fL'
p3339
I-57
I53
tp3340
tp3341
Rp3342
(dp3343
g189
I53
sbg1045
g330
g514
g310
tp3344
Rp3345
(dp3346
btp3347
Rp3348
(dp3349
bag218
(g219
(g246
g330
g514
g218
(g219
(g183
((I1
S'12c4bd458ce1b7L'
p3350
I-52
I53
tp3351
tp3352
Rp3353
(dp3354
g189
I53
sbg409
tp3355
Rp3356
(dp3357
bg219
(g183
((I0
S'13975839fc391dL'
p3358
I-57
I53
tp3359
tp3360
Rp3361
(dp3362
g189
I53
sbg1204
g293
tp3363
Rp3364
(dp3365
bg219
(g183
((I0
S'19a6f78586412fL'
p3366
I-57
I53
tp3367
tp3368
Rp3369
(dp3370
g189
I53
sbg1045
g310
tp3371
Rp3372
(dp3373
bg219
(g183
((I0
S'1e9c79da9a193dL'
p3374
I-56
I53
tp3375
tp3376
Rp3377
(dp3378
g189
I53
sbg4
g1289
tp3379
Rp3380
(dp3381
btp3382
Rp3383
(dp3384
btp3385
Rp3386
(dp3387
bg219
(g246
g330
g218
(g219
(g183
((I1
S'a606143a8eb55L'
p3388
I-58
I52
tp3389
tp3390
Rp3391
(dp3392
g189
I53
sbg1193
tp3393
Rp3394
(dp3395
bg219
(g183
((I0
S'17b2ffa92fee33L'
p3396
I-60
I53
tp3397
tp3398
Rp3399
(dp3400
g189
I53
sbg262
g1062
tp3401
Rp3402
(dp3403
btp3404
Rp3405
(dp3406
bg3070
tp3407
Rp3408
(dp3409
bg219
(g246
g330
g218
(g219
(g183
((I1
S'1ca79d82cabf43L'
p3410
I-60
I53
tp3411
tp3412
Rp3413
(dp3414
g189
I53
sbg1062
tp3415
Rp3416
(dp3417
bg219
(g183
((I0
S'1f07f9f4bac24bL'
p3418
I-60
I53
tp3419
tp3420
Rp3421
(dp3422
g189
I53
sbg262
g1193
tp3423
Rp3424
(dp3425
btp3426
Rp3427
(dp3428
bg2961
tp3429
Rp3430
(dp3431
bg219
(g246
g1726
g514
g218
(g219
(g183
((I0
S'8c585bae390d1L'
p3432
I-62
I52
tp3433
tp3434
Rp3435
(dp3436
g189
I53
sbg293
g1062
tp3437
Rp3438
(dp3439
bg219
(g183
((I0
S'10a2e0714ba6b5L'
p3440
I-62
I53
tp3441
tp3442
Rp3443
(dp3444
g189
I53
sbg310
g1193
tp3445
Rp3446
(dp3447
bg219
(g183
((I1
S'97fbfcd79f089L'
p3448
I-62
I52
tp3449
tp3450
Rp3451
(dp3452
g189
I53
sbg262
g293
g1193
tp3453
Rp3454
(dp3455
bg219
(g183
((I1
S'97fbfcd79f089L'
p3456
I-62
I52
tp3457
tp3458
Rp3459
(dp3460
g189
I53
sbg262
g310
g1062
tp3461
Rp3462
(dp3463
btp3464
Rp3465
(dp3466
bg3159
tp3467
Rp3468
(dp3469
bg219
(g246
g1726
g471
g3465
g3070
tp3470
Rp3471
(dp3472
bg219
(g246
g1726
g406
g3465
g2961
tp3473
Rp3474
(dp3475
bg219
(g183
((I0
S'13975839fc391dL'
p3476
I-57
I53
tp3477
tp3478
Rp3479
(dp3480
g189
I53
sbg1059
g330
g406
g293
tp3481
Rp3482
(dp3483
bg219
(g183
((I0
S'19a6f78586412fL'
p3484
I-57
I53
tp3485
tp3486
Rp3487
(dp3488
g189
I53
sbg1059
g330
g471
g310
tp3489
Rp3490
(dp3491
btp3492
Rp3493
(dp3494
bag181
ag218
(g219
(g183
((I1
S'1d4e721449adL'
p3495
I-52
I45
tp3496
tp3497
Rp3498
(dp3499
g189
I53
sbg330
g406
tp3500
Rp3501
(dp3502
bg219
(g246
g330
g218
(g183
((I1
S'82d797485efe1L'
p3503
I-70
I52
tp3504
tp3505
Rp3506
(dp3507
g189
I53
sbg219
(g183
((I1
S'9ad708812df8dL'
p3508
I-53
I52
tp3509
tp3510
Rp3511
(dp3512
g189
I53
sbg526
g1048
tp3513
Rp3514
(dp3515
btp3516
Rp3517
(dp3518
bg471
tp3519
Rp3520
(dp3521
bg219
(g183
((I0
S'13975839fc391dL'
p3522
I-56
I53
tp3523
tp3524
Rp3525
(dp3526
g189
I53
sbg526
g330
g514
g1062
tp3527
Rp3528
(dp3529
btp3530
Rp3531
(dp3532
bag218
(g219
(g183
((I1
S'6c070df4060d1L'
p3533
I-60
I51
tp3534
tp3535
Rp3536
(dp3537
g189
I53
sbg330
g471
tp3538
Rp3539
(dp3540
bg219
(g246
g330
g514
g218
(g183
((I1
S'6be6580e33f55L'
p3541
I-60
I51
tp3542
tp3543
Rp3544
(dp3545
g189
I53
sbg219
(g183
((I1
S'19a6f78586412fL'
p3546
I-56
I53
tp3547
tp3548
Rp3549
(dp3550
g189
I53
sbg533
g1193
tp3551
Rp3552
(dp3553
btp3554
Rp3555
(dp3556
btp3557
Rp3558
(dp3559
bg219
(g246
g330
g218
(g183
((I1
S'82d797485efe1L'
p3560
I-70
I52
tp3561
tp3562
Rp3563
(dp3564
g189
I53
sbg219
(g183
((I0
S'9ad708812df8dL'
p3565
I-53
I52
tp3566
tp3567
Rp3568
(dp3569
g189
I53
sbg533
g1048
tp3570
Rp3571
(dp3572
btp3573
Rp3574
(dp3575
bg406
tp3576
Rp3577
(dp3578
btp3579
Rp3580
(dp3581
bag218
(g219
(g183
((I1
S'6be6580e33f55L'
p3582
I-60
I51
tp3583
tp3584
Rp3585
(dp3586
g189
I53
sbg330
g514
tp3587
Rp3588
(dp3589
bg219
(g246
g330
g218
(g183
((I1
S'6be6580e33f55L'
p3590
I-60
I51
tp3591
tp3592
Rp3593
(dp3594
g189
I53
sbg219
(g183
((I0
S'19a6f78586412fL'
p3595
I-56
I53
tp3596
tp3597
Rp3598
(dp3599
g189
I53
sbg540
g1193
tp3600
Rp3601
(dp3602
btp3603
Rp3604
(dp3605
bg471
tp3606
Rp3607
(dp3608
bg219
(g183
((I1
S'13975839fc391dL'
p3609
I-56
I53
tp3610
tp3611
Rp3612
(dp3613
g189
I53
sbg540
g330
g406
g1062
tp3614
Rp3615
(dp3616
btp3617
Rp3618
(dp3619
bag181
ag181
ag181
ag181
ag181
ag181
ag181
ag181
ag181
asg203
I8
sbsS'Bnum'
p3620
g7
(g172
g173
Ntp3621
Rp3622
(dp3623
g177
I8
sg178
(lp3624
g181
ag181
ag181
ag181
ag187
ag193
ag198
ag201
asg203
I1
sbsS'symbols'
p3625
(g239
g250
g281
g2
(S'q4'
p3626
tp3627
Rp3628
(dp3629
g6
g7
(g8
g9
(dp3630
g11
I01
stp3631
Rp3632
sbg526
g533
g540
g547
g2
(S'q1dd'
p3633
tp3634
Rp3635
(dp3636
g6
g7
(g8
g9
(dp3637
g34
Nsg11
I01
sg12
Nsg13
Nsg14
Nsg15
Nsg16
Nsg18
Nsg19
Nsg21
Nsg22
Nsg23
Nstp3638
Rp3639
sbg2
(S'q2dd'
p3640
tp3641
Rp3642
(dp3643
g6
g7
(g8
g9
(dp3644
g34
Nsg11
I01
sg12
Nsg13
Nsg14
Nsg15
Nsg16
Nsg18
Nsg19
Nsg21
Nsg22
Nsg23
Nstp3645
Rp3646
sbg2
(S'q3dd'
p3647
tp3648
Rp3649
(dp3650
g6
g7
(g8
g9
(dp3651
g34
Nsg11
I01
sg12
Nsg13
Nsg14
Nsg15
Nsg16
Nsg18
Nsg19
Nsg21
Nsg22
Nsg23
Nstp3652
Rp3653
sbg2
(S'q4dd'
p3654
tp3655
Rp3656
(dp3657
g6
g7
(g8
g9
(dp3658
g34
Nsg11
I01
sg12
Nsg13
Nsg14
Nsg15
Nsg16
Nsg18
Nsg19
Nsg21
Nsg22
Nsg23
Nstp3659
Rp3660
sbtp3661
sS'sys_diskret_num'
p3662
g7
(g172
g173
Ntp3663
Rp3664
(dp3665
g177
I8
sg178
(lp3666
g218
(g239
g219
(g206
g526
tp3667
Rp3668
(dp3669
btp3670
Rp3671
(dp3672
bag218
(g250
g219
(g206
g533
tp3673
Rp3674
(dp3675
btp3676
Rp3677
(dp3678
bag218
(g281
g219
(g206
g540
tp3679
Rp3680
(dp3681
btp3682
Rp3683
(dp3684
bag218
(g3628
g219
(g206
g547
tp3685
Rp3686
(dp3687
btp3688
Rp3689
(dp3690
bag218
(g526
g219
(g206
g218
(g219
(g246
g330
g346
g218
(g219
(g183
((I0
S'1d4e721449adL'
p3691
I-52
I45
tp3692
tp3693
Rp3694
(dp3695
g189
I53
sbg526
tp3696
Rp3697
(dp3698
bg219
(g183
((I1
S'82d797485efe1L'
p3699
I-70
I52
tp3700
tp3701
Rp3702
(dp3703
g189
I53
sbg533
tp3704
Rp3705
(dp3706
bg219
(g183
((I1
S'c706393c25ba9L'
p3707
I-49
I52
tp3708
tp3709
Rp3710
(dp3711
g189
I53
sbg1018
tp3712
Rp3713
(dp3714
bg219
(g183
((I0
S'9ad708812df8dL'
p3715
I-54
I52
tp3716
tp3717
Rp3718
(dp3719
g189
I53
sbg1045
g1048
tp3720
Rp3721
(dp3722
bg219
(g183
((I0
S'13975839fc391dL'
p3723
I-57
I53
tp3724
tp3725
Rp3726
(dp3727
g189
I53
sbg1059
g1062
tp3728
Rp3729
(dp3730
bg219
(g183
((I1
S'a24d9f25d4223L'
p3731
I-52
I52
tp3732
tp3733
Rp3734
(dp3735
g189
I53
sbg4
g349
tp3736
Rp3737
(dp3738
btp3739
Rp3740
(dp3741
btp3742
Rp3743
(dp3744
bg219
(g246
g330
g376
g218
(g219
(g183
((I0
S'6c070df4060d1L'
p3745
I-60
I51
tp3746
tp3747
Rp3748
(dp3749
g189
I53
sbg533
tp3750
Rp3751
(dp3752
bg219
(g183
((I1
S'4a2b4072e0a55L'
p3753
I-48
I51
tp3754
tp3755
Rp3756
(dp3757
g189
I53
sbg1174
tp3758
Rp3759
(dp3760
bg219
(g183
((I1
S'6be6580e33f55L'
p3761
I-60
I51
tp3762
tp3763
Rp3764
(dp3765
g189
I53
sbg540
tp3766
Rp3767
(dp3768
bg219
(g183
((I1
S'82d797485efe1L'
p3769
I-70
I52
tp3770
tp3771
Rp3772
(dp3773
g189
I53
sbg526
tp3774
Rp3775
(dp3776
bg219
(g183
((I0
S'19a6f78586412fL'
p3777
I-57
I53
tp3778
tp3779
Rp3780
(dp3781
g189
I53
sbg1059
g1193
tp3782
Rp3783
(dp3784
bg219
(g183
((I1
S'9ad708812df8dL'
p3785
I-54
I52
tp3786
tp3787
Rp3788
(dp3789
g189
I53
sbg1204
g1048
tp3790
Rp3791
(dp3792
bg219
(g183
((I1
S'1e3dffa93afa99L'
p3793
I-54
I53
tp3794
tp3795
Rp3796
(dp3797
g189
I53
sbg4
g379
tp3798
Rp3799
(dp3800
btp3801
Rp3802
(dp3803
btp3804
Rp3805
(dp3806
bg219
(g246
g330
g406
g218
(g219
(g183
((I0
S'6be6580e33f55L'
p3807
I-60
I51
tp3808
tp3809
Rp3810
(dp3811
g189
I53
sbg540
tp3812
Rp3813
(dp3814
bg219
(g183
((I1
S'6be6580e33f55L'
p3815
I-60
I51
tp3816
tp3817
Rp3818
(dp3819
g189
I53
sbg533
tp3820
Rp3821
(dp3822
bg219
(g183
((I1
S'12c4bd458ce1b7L'
p3823
I-52
I53
tp3824
tp3825
Rp3826
(dp3827
g189
I53
sbg1289
tp3828
Rp3829
(dp3830
bg219
(g183
((I1
S'13975839fc391dL'
p3831
I-57
I53
tp3832
tp3833
Rp3834
(dp3835
g189
I53
sbg1204
g1062
tp3836
Rp3837
(dp3838
bg219
(g183
((I1
S'19a6f78586412fL'
p3839
I-57
I53
tp3840
tp3841
Rp3842
(dp3843
g189
I53
sbg1045
g1193
tp3844
Rp3845
(dp3846
bg219
(g183
((I1
S'1e9c79da9a193dL'
p3847
I-56
I53
tp3848
tp3849
Rp3850
(dp3851
g189
I53
sbg4
g409
tp3852
Rp3853
(dp3854
btp3855
Rp3856
(dp3857
btp3858
Rp3859
(dp3860
btp3861
Rp3862
(dp3863
btp3864
Rp3865
(dp3866
btp3867
Rp3868
(dp3869
bag218
(g533
g219
(g206
g218
(g219
(g246
g330
g444
g3802
tp3870
Rp3871
(dp3872
bg219
(g246
g330
g471
g3856
tp3873
Rp3874
(dp3875
bg219
(g246
g330
g376
g3740
tp3876
Rp3877
(dp3878
btp3879
Rp3880
(dp3881
btp3882
Rp3883
(dp3884
btp3885
Rp3886
(dp3887
bag218
(g540
g219
(g206
g218
(g219
(g246
g330
g514
g3856
tp3888
Rp3889
(dp3890
bg219
(g246
g330
g471
g3802
tp3891
Rp3892
(dp3893
bg219
(g246
g330
g406
g3740
tp3894
Rp3895
(dp3896
btp3897
Rp3898
(dp3899
btp3900
Rp3901
(dp3902
btp3903
Rp3904
(dp3905
bag218
(g547
g219
(g206
g4
tp3906
Rp3907
(dp3908
btp3909
Rp3910
(dp3911
basg203
I1
sbsS'Aext'
p3912
g7
(g172
g173
Ntp3913
Rp3914
(dp3915
g177
I9
sg178
(lp3916
g181
ag181
ag181
ag181
ag201
ag181
ag181
ag181
ag181
ag181
ag181
ag181
ag181
ag181
ag201
ag181
ag181
ag181
ag181
ag181
ag181
ag181
ag181
ag181
ag201
ag181
ag181
ag181
ag181
ag181
ag181
ag181
ag181
ag181
ag201
ag181
ag183
((I0
S'50eb435d93641L'
p3917
I-44
I51
tp3918
tp3919
Rp3920
(dp3921
g189
I53
sbag183
((I1
S'19cdd95f18de6bL'
p3922
I-47
I53
tp3923
tp3924
Rp3925
(dp3926
g189
I53
sbag183
((I0
S'1985606e3881a5L'
p3927
I-52
I53
tp3928
tp3929
Rp3930
(dp3931
g189
I53
sbag181
ag183
((I1
S'17d6168901e3bL'
p3932
I-52
I49
tp3933
tp3934
Rp3935
(dp3936
g189
I53
sbag183
((I0
S'a8e2133b8b1d3L'
p3937
I-57
I52
tp3938
tp3939
Rp3940
(dp3941
g189
I53
sbag183
((I1
S'150feb6696e2dbL'
p3942
I-58
I53
tp3943
tp3944
Rp3945
(dp3946
g189
I53
sbag181
ag181
ag183
((I1
S'114f84ef92c551L'
p3947
I-46
I53
tp3948
tp3949
Rp3950
(dp3951
g189
I53
sbag183
((I0
S'287d8daaaeb65L'
p3952
I-43
I50
tp3953
tp3954
Rp3955
(dp3956
g189
I53
sbag183
((I1
S'17e76b6a2dc863L'
p3957
I-49
I53
tp3958
tp3959
Rp3960
(dp3961
g189
I53
sbag181
ag183
((I0
S'519a5153fcaedL'
p3962
I-54
I51
tp3963
tp3964
Rp3965
(dp3966
g189
I53
sbag183
((I1
S'5d5ffa90459ebL'
p3967
I-55
I51
tp3968
tp3969
Rp3970
(dp3971
g189
I53
sbag183
((I0
S'ba857b6bca179L'
p3972
I-56
I52
tp3973
tp3974
Rp3975
(dp3976
g189
I53
sbag181
ag181
ag183
((I0
S'10ea0f85732d8bL'
p3977
I-49
I53
tp3978
tp3979
Rp3980
(dp3981
g189
I53
sbag183
((I1
S'bced256bb7bdL'
p3982
I-42
I48
tp3983
tp3984
Rp3985
(dp3986
g189
I53
sbag183
((I0
S'136677a63cdc23L'
p3987
I-47
I53
tp3988
tp3989
Rp3990
(dp3991
g189
I53
sbag181
ag183
((I1
S'9fb9f33c5e733L'
p3992
I-58
I52
tp3993
tp3994
Rp3995
(dp3996
g189
I53
sbag183
((I0
S'123de0bf4aa515L'
p3997
I-56
I53
tp3998
tp3999
Rp4000
(dp4001
g189
I53
sbag183
((I1
S'48f19becf602fL'
p4002
I-54
I51
tp4003
tp4004
Rp4005
(dp4006
g189
I53
sbag181
ag181
ag181
ag181
ag181
ag181
ag181
ag181
ag181
ag181
ag181
ag181
ag181
ag181
ag201
ag181
ag181
ag181
ag181
ag181
asg203
I9
sbsS'B_uuu_num'
p4007
g7
(g172
g173
Ntp4008
Rp4009
(dp4010
g177
I8
sg178
(lp4011
g181
ag181
ag181
ag181
ag183
((I1
S'19341c630eed7L'
p4012
I-47
I49
tp4013
tp4014
Rp4015
(dp4016
g189
I53
sbag183
((I0
S'b25d8b68df9L'
p4017
I-49
I44
tp4018
tp4019
Rp4020
(dp4021
g189
I53
sbag183
((I1
S'ae48223620e93L'
p4022
I-60
I52
tp4023
tp4024
Rp4025
(dp4026
g189
I53
sbag201
asg203
I1
sbsS'sys_jac_num'
p4027
g7
(g172
g173
Ntp4028
Rp4029
(dp4030
g177
I8
sg178
(lp4031
g201
ag181
ag181
ag181
ag206
ag181
ag181
ag181
ag181
ag201
ag181
ag181
ag181
ag206
ag181
ag181
ag181
ag181
ag201
ag181
ag181
ag181
ag206
ag181
ag181
ag181
ag181
ag201
ag181
ag181
ag181
ag206
ag219
(g206
g218
(g219
(g246
g330
g346
g218
(g219
(g183
((I1
S'c706393c25ba9L'
p4032
I-49
I52
tp4033
tp4034
Rp4035
(dp4036
g189
I53
sbg349
tp4037
Rp4038
(dp4039
bg219
(g183
((I0
S'9ad708812df8dL'
p4040
I-54
I52
tp4041
tp4042
Rp4043
(dp4044
g189
I53
sbg1045
g262
tp4045
Rp4046
(dp4047
bg219
(g183
((I0
S'a24d9f25d4223L'
p4048
I-52
I52
tp4049
tp4050
Rp4051
(dp4052
g189
I53
sbg4
g1018
tp4053
Rp4054
(dp4055
bg219
(g183
((I0
S'13975839fc391dL'
p4056
I-57
I53
tp4057
tp4058
Rp4059
(dp4060
g189
I53
sbg1059
g293
tp4061
Rp4062
(dp4063
btp4064
Rp4065
(dp4066
btp4067
Rp4068
(dp4069
bg219
(g246
g330
g218
(g219
(g183
((I0
S'da793eee15fbfL'
p4070
I-59
I52
tp4071
tp4072
Rp4073
(dp4074
g189
I53
sbg1048
tp4075
Rp4076
(dp4077
bg219
(g183
((I1
S'1f68eb21d421e9L'
p4078
I-62
I53
tp4079
tp4080
Rp4081
(dp4082
g189
I53
sbg310
g1062
tp4083
Rp4084
(dp4085
btp4086
Rp4087
(dp4088
bg3802
tp4089
Rp4090
(dp4091
bg219
(g246
g330
g218
(g219
(g183
((I0
S'1ca79d82cabf43L'
p4092
I-60
I53
tp4093
tp4094
Rp4095
(dp4096
g189
I53
sbg1062
tp4097
Rp4098
(dp4099
bg219
(g183
((I1
S'1f07f9f4bac24bL'
p4100
I-60
I53
tp4101
tp4102
Rp4103
(dp4104
g189
I53
sbg310
g1048
tp4105
Rp4106
(dp4107
btp4108
Rp4109
(dp4110
bg3856
tp4111
Rp4112
(dp4113
bg219
(g246
g1726
g346
g218
(g219
(g183
((I1
S'842472f11b79dL'
p4114
I-60
I52
tp4115
tp4116
Rp4117
(dp4118
g189
I53
sbg262
g1048
tp4119
Rp4120
(dp4121
bg219
(g183
((I1
S'8c585bae390d1L'
p4122
I-62
I52
tp4123
tp4124
Rp4125
(dp4126
g189
I53
sbg293
g1062
tp4127
Rp4128
(dp4129
bg219
(g183
((I0
S'97fbfcd79f089L'
p4130
I-62
I52
tp4131
tp4132
Rp4133
(dp4134
g189
I53
sbg262
g310
g1062
tp4135
Rp4136
(dp4137
bg219
(g183
((I0
S'97fbfcd79f089L'
p4138
I-62
I52
tp4139
tp4140
Rp4141
(dp4142
g189
I53
sbg293
g310
g1048
tp4143
Rp4144
(dp4145
btp4146
Rp4147
(dp4148
bg3740
tp4149
Rp4150
(dp4151
bg219
(g246
g1726
g376
g4147
g3802
tp4152
Rp4153
(dp4154
bg219
(g246
g1726
g406
g4147
g3856
tp4155
Rp4156
(dp4157
bg219
(g183
((I0
S'9ad708812df8dL'
p4158
I-54
I52
tp4159
tp4160
Rp4161
(dp4162
g189
I53
sbg1204
g330
g376
g262
tp4163
Rp4164
(dp4165
bg219
(g183
((I0
S'13975839fc391dL'
p4166
I-57
I53
tp4167
tp4168
Rp4169
(dp4170
g189
I53
sbg1204
g330
g406
g293
tp4171
Rp4172
(dp4173
btp4174
Rp4175
(dp4176
btp4177
Rp4178
(dp4179
bag219
(g206
g218
(g219
(g246
g330
g376
g218
(g219
(g183
((I1
S'4a2b4072e0a55L'
p4180
I-48
I51
tp4181
tp4182
Rp4183
(dp4184
g189
I53
sbg379
tp4185
Rp4186
(dp4187
bg219
(g183
((I0
S'9ad708812df8dL'
p4188
I-54
I52
tp4189
tp4190
Rp4191
(dp4192
g189
I53
sbg1204
g262
tp4193
Rp4194
(dp4195
bg219
(g183
((I0
S'19a6f78586412fL'
p4196
I-57
I53
tp4197
tp4198
Rp4199
(dp4200
g189
I53
sbg1059
g310
tp4201
Rp4202
(dp4203
bg219
(g183
((I0
S'1e3dffa93afa99L'
p4204
I-54
I53
tp4205
tp4206
Rp4207
(dp4208
g189
I53
sbg4
g1174
tp4209
Rp4210
(dp4211
btp4212
Rp4213
(dp4214
btp4215
Rp4216
(dp4217
bg219
(g246
g330
g218
(g219
(g183
((I1
S'da793eee15fbfL'
p4218
I-59
I52
tp4219
tp4220
Rp4221
(dp4222
g189
I53
sbg1048
tp4223
Rp4224
(dp4225
bg219
(g183
((I1
S'1f68eb21d421e9L'
p4226
I-62
I53
tp4227
tp4228
Rp4229
(dp4230
g189
I53
sbg293
g1193
tp4231
Rp4232
(dp4233
btp4234
Rp4235
(dp4236
bg3802
tp4237
Rp4238
(dp4239
bg219
(g246
g330
g218
(g219
(g183
((I0
S'1f07f9f4bac24bL'
p4240
I-60
I53
tp4241
tp4242
Rp4243
(dp4244
g189
I53
sbg310
g1048
tp4245
Rp4246
(dp4247
bg219
(g183
((I1
S'1f07f9f4bac24bL'
p4248
I-60
I53
tp4249
tp4250
Rp4251
(dp4252
g189
I53
sbg262
g1193
tp4253
Rp4254
(dp4255
btp4256
Rp4257
(dp4258
bg3856
tp4259
Rp4260
(dp4261
bg219
(g246
g1726
g346
g218
(g219
(g183
((I0
S'842472f11b79dL'
p4262
I-60
I52
tp4263
tp4264
Rp4265
(dp4266
g189
I53
sbg262
g1048
tp4267
Rp4268
(dp4269
bg219
(g183
((I1
S'10a2e0714ba6b5L'
p4270
I-62
I53
tp4271
tp4272
Rp4273
(dp4274
g189
I53
sbg310
g1193
tp4275
Rp4276
(dp4277
bg219
(g183
((I0
S'97fbfcd79f089L'
p4278
I-62
I52
tp4279
tp4280
Rp4281
(dp4282
g189
I53
sbg262
g293
g1193
tp4283
Rp4284
(dp4285
bg219
(g183
((I1
S'97fbfcd79f089L'
p4286
I-62
I52
tp4287
tp4288
Rp4289
(dp4290
g189
I53
sbg293
g310
g1048
tp4291
Rp4292
(dp4293
btp4294
Rp4295
(dp4296
bg3740
tp4297
Rp4298
(dp4299
bg219
(g246
g1726
g376
g4295
g3802
tp4300
Rp4301
(dp4302
bg219
(g246
g1726
g406
g4295
g3856
tp4303
Rp4304
(dp4305
bg219
(g183
((I0
S'9ad708812df8dL'
p4306
I-54
I52
tp4307
tp4308
Rp4309
(dp4310
g189
I53
sbg1045
g330
g346
g262
tp4311
Rp4312
(dp4313
bg219
(g183
((I0
S'19a6f78586412fL'
p4314
I-57
I53
tp4315
tp4316
Rp4317
(dp4318
g189
I53
sbg1045
g330
g406
g310
tp4319
Rp4320
(dp4321
bg219
(g183
((I1
S'149049f025ae33L'
p4322
I-60
I53
tp4323
tp4324
Rp4325
(dp4326
g189
I53
sbg330
g3740
g310
g1193
tp4327
Rp4328
(dp4329
btp4330
Rp4331
(dp4332
btp4333
Rp4334
(dp4335
bag219
(g206
g218
(g219
(g246
g330
g406
g218
(g219
(g183
((I1
S'12c4bd458ce1b7L'
p4336
I-52
I53
tp4337
tp4338
Rp4339
(dp4340
g189
I53
sbg409
tp4341
Rp4342
(dp4343
bg219
(g183
((I0
S'13975839fc391dL'
p4344
I-57
I53
tp4345
tp4346
Rp4347
(dp4348
g189
I53
sbg1204
g293
tp4349
Rp4350
(dp4351
bg219
(g183
((I0
S'19a6f78586412fL'
p4352
I-57
I53
tp4353
tp4354
Rp4355
(dp4356
g189
I53
sbg1045
g310
tp4357
Rp4358
(dp4359
bg219
(g183
((I0
S'1e9c79da9a193dL'
p4360
I-56
I53
tp4361
tp4362
Rp4363
(dp4364
g189
I53
sbg4
g1289
tp4365
Rp4366
(dp4367
btp4368
Rp4369
(dp4370
btp4371
Rp4372
(dp4373
bg219
(g246
g330
g218
(g219
(g183
((I1
S'1ca79d82cabf43L'
p4374
I-60
I53
tp4375
tp4376
Rp4377
(dp4378
g189
I53
sbg1062
tp4379
Rp4380
(dp4381
bg219
(g183
((I0
S'1f07f9f4bac24bL'
p4382
I-60
I53
tp4383
tp4384
Rp4385
(dp4386
g189
I53
sbg262
g1193
tp4387
Rp4388
(dp4389
btp4390
Rp4391
(dp4392
bg3856
tp4393
Rp4394
(dp4395
bg219
(g246
g330
g218
(g219
(g183
((I0
S'1f68eb21d421e9L'
p4396
I-62
I53
tp4397
tp4398
Rp4399
(dp4400
g189
I53
sbg293
g1193
tp4401
Rp4402
(dp4403
bg219
(g183
((I0
S'1f68eb21d421e9L'
p4404
I-62
I53
tp4405
tp4406
Rp4407
(dp4408
g189
I53
sbg310
g1062
tp4409
Rp4410
(dp4411
btp4412
Rp4413
(dp4414
bg3802
tp4415
Rp4416
(dp4417
bg219
(g246
g1726
g346
g218
(g219
(g183
((I0
S'8c585bae390d1L'
p4418
I-62
I52
tp4419
tp4420
Rp4421
(dp4422
g189
I53
sbg293
g1062
tp4423
Rp4424
(dp4425
bg219
(g183
((I0
S'10a2e0714ba6b5L'
p4426
I-62
I53
tp4427
tp4428
Rp4429
(dp4430
g189
I53
sbg310
g1193
tp4431
Rp4432
(dp4433
bg219
(g183
((I1
S'97fbfcd79f089L'
p4434
I-62
I52
tp4435
tp4436
Rp4437
(dp4438
g189
I53
sbg262
g293
g1193
tp4439
Rp4440
(dp4441
bg219
(g183
((I1
S'97fbfcd79f089L'
p4442
I-62
I52
tp4443
tp4444
Rp4445
(dp4446
g189
I53
sbg262
g310
g1062
tp4447
Rp4448
(dp4449
btp4450
Rp4451
(dp4452
bg3740
tp4453
Rp4454
(dp4455
bg219
(g246
g1726
g376
g4451
g3802
tp4456
Rp4457
(dp4458
bg219
(g246
g1726
g406
g4451
g3856
tp4459
Rp4460
(dp4461
bg219
(g183
((I0
S'13975839fc391dL'
p4462
I-57
I53
tp4463
tp4464
Rp4465
(dp4466
g189
I53
sbg1059
g330
g346
g293
tp4467
Rp4468
(dp4469
bg219
(g183
((I0
S'149049f025ae33L'
p4470
I-60
I53
tp4471
tp4472
Rp4473
(dp4474
g189
I53
sbg330
g3740
g310
g1193
tp4475
Rp4476
(dp4477
bg219
(g183
((I0
S'19a6f78586412fL'
p4478
I-57
I53
tp4479
tp4480
Rp4481
(dp4482
g189
I53
sbg1059
g330
g376
g310
tp4483
Rp4484
(dp4485
btp4486
Rp4487
(dp4488
btp4489
Rp4490
(dp4491
bag181
ag218
(g201
g219
(g206
g218
(g219
(g183
((I1
S'1d4e721449adL'
p4492
I-52
I45
tp4493
tp4494
Rp4495
(dp4496
g189
I53
sbg330
g346
tp4497
Rp4498
(dp4499
bg219
(g246
g330
g218
(g183
((I1
S'82d797485efe1L'
p4500
I-70
I52
tp4501
tp4502
Rp4503
(dp4504
g189
I53
sbg219
(g183
((I1
S'9ad708812df8dL'
p4505
I-53
I52
tp4506
tp4507
Rp4508
(dp4509
g189
I53
sbg526
g1048
tp4510
Rp4511
(dp4512
btp4513
Rp4514
(dp4515
bg376
tp4516
Rp4517
(dp4518
bg219
(g183
((I0
S'13975839fc391dL'
p4519
I-56
I53
tp4520
tp4521
Rp4522
(dp4523
g189
I53
sbg526
g330
g406
g1062
tp4524
Rp4525
(dp4526
btp4527
Rp4528
(dp4529
btp4530
Rp4531
(dp4532
btp4533
Rp4534
(dp4535
bag219
(g206
g218
(g219
(g183
((I1
S'6c070df4060d1L'
p4536
I-60
I51
tp4537
tp4538
Rp4539
(dp4540
g189
I53
sbg330
g376
tp4541
Rp4542
(dp4543
bg219
(g246
g330
g346
g218
(g183
((I1
S'82d797485efe1L'
p4544
I-70
I52
tp4545
tp4546
Rp4547
(dp4548
g189
I53
sbg219
(g183
((I0
S'9ad708812df8dL'
p4549
I-53
I52
tp4550
tp4551
Rp4552
(dp4553
g189
I53
sbg533
g1048
tp4554
Rp4555
(dp4556
btp4557
Rp4558
(dp4559
btp4560
Rp4561
(dp4562
bg219
(g246
g330
g218
(g183
((I1
S'6be6580e33f55L'
p4563
I-60
I51
tp4564
tp4565
Rp4566
(dp4567
g189
I53
sbg219
(g183
((I1
S'19a6f78586412fL'
p4568
I-56
I53
tp4569
tp4570
Rp4571
(dp4572
g189
I53
sbg533
g1193
tp4573
Rp4574
(dp4575
btp4576
Rp4577
(dp4578
bg406
tp4579
Rp4580
(dp4581
btp4582
Rp4583
(dp4584
btp4585
Rp4586
(dp4587
bag219
(g206
g218
(g219
(g183
((I1
S'6be6580e33f55L'
p4588
I-60
I51
tp4589
tp4590
Rp4591
(dp4592
g189
I53
sbg330
g406
tp4593
Rp4594
(dp4595
bg219
(g246
g330
g218
(g183
((I1
S'6be6580e33f55L'
p4596
I-60
I51
tp4597
tp4598
Rp4599
(dp4600
g189
I53
sbg219
(g183
((I0
S'19a6f78586412fL'
p4601
I-56
I53
tp4602
tp4603
Rp4604
(dp4605
g189
I53
sbg540
g1193
tp4606
Rp4607
(dp4608
btp4609
Rp4610
(dp4611
bg376
tp4612
Rp4613
(dp4614
bg219
(g183
((I1
S'13975839fc391dL'
p4615
I-56
I53
tp4616
tp4617
Rp4618
(dp4619
g189
I53
sbg540
g330
g346
g1062
tp4620
Rp4621
(dp4622
btp4623
Rp4624
(dp4625
btp4626
Rp4627
(dp4628
bag181
ag219
(g206
g218
(g219
(g246
g330
g218
(g219
(g183
((I0
S'da793eee15fbfL'
p4629
I-59
I52
tp4630
tp4631
Rp4632
(dp4633
g189
I53
sbg1048
tp4634
Rp4635
(dp4636
bg219
(g183
((I1
S'1f68eb21d421e9L'
p4637
I-62
I53
tp4638
tp4639
Rp4640
(dp4641
g189
I53
sbg310
g1062
tp4642
Rp4643
(dp4644
btp4645
Rp4646
(dp4647
bg3740
tp4648
Rp4649
(dp4650
bg219
(g246
g330
g376
g218
(g219
(g183
((I1
S'c706393c25ba9L'
p4651
I-49
I52
tp4652
tp4653
Rp4654
(dp4655
g189
I53
sbg349
tp4656
Rp4657
(dp4658
bg219
(g183
((I0
S'9ad708812df8dL'
p4659
I-54
I52
tp4660
tp4661
Rp4662
(dp4663
g189
I53
sbg1045
g262
tp4664
Rp4665
(dp4666
bg219
(g183
((I0
S'a24d9f25d4223L'
p4667
I-52
I52
tp4668
tp4669
Rp4670
(dp4671
g189
I53
sbg4
g1018
tp4672
Rp4673
(dp4674
bg219
(g183
((I0
S'13975839fc391dL'
p4675
I-57
I53
tp4676
tp4677
Rp4678
(dp4679
g189
I53
sbg1059
g293
tp4680
Rp4681
(dp4682
btp4683
Rp4684
(dp4685
btp4686
Rp4687
(dp4688
bg219
(g246
g330
g218
(g219
(g183
((I1
S'17b2ffa92fee33L'
p4689
I-60
I53
tp4690
tp4691
Rp4692
(dp4693
g189
I53
sbg262
g1062
tp4694
Rp4695
(dp4696
bg219
(g183
((I1
S'17b2ffa92fee33L'
p4697
I-60
I53
tp4698
tp4699
Rp4700
(dp4701
g189
I53
sbg293
g1048
tp4702
Rp4703
(dp4704
btp4705
Rp4706
(dp4707
bg3856
tp4708
Rp4709
(dp4710
bg219
(g246
g1726
g218
(g183
((I0
S'921c459d963b3L'
p4711
I-58
I52
tp4712
tp4713
Rp4714
(dp4715
g189
I53
sbg219
(g183
((I1
S'5ff424738ffc1L'
p4716
I-60
I51
tp4717
tp4718
Rp4719
(dp4720
g189
I53
sbg296
tp4721
Rp4722
(dp4723
btp4724
Rp4725
(dp4726
bg218
(g219
(g183
((I1
S'842472f11b79dL'
p4727
I-60
I52
tp4728
tp4729
Rp4730
(dp4731
g189
I53
sbg262
g1048
tp4732
Rp4733
(dp4734
bg219
(g183
((I1
S'8c585bae390d1L'
p4735
I-62
I52
tp4736
tp4737
Rp4738
(dp4739
g189
I53
sbg293
g1062
tp4740
Rp4741
(dp4742
bg219
(g183
((I0
S'97fbfcd79f089L'
p4743
I-62
I52
tp4744
tp4745
Rp4746
(dp4747
g189
I53
sbg262
g310
g1062
tp4748
Rp4749
(dp4750
bg219
(g183
((I0
S'97fbfcd79f089L'
p4751
I-62
I52
tp4752
tp4753
Rp4754
(dp4755
g189
I53
sbg293
g310
g1048
tp4756
Rp4757
(dp4758
btp4759
Rp4760
(dp4761
bg3802
tp4762
Rp4763
(dp4764
bg219
(g246
g1726
g218
(g219
(g183
((I1
S'a606143a8eb55L'
p4765
I-58
I52
tp4766
tp4767
Rp4768
(dp4769
g189
I53
sbg310
tp4770
Rp4771
(dp4772
bg219
(g183
((I0
S'17b2ffa92fee33L'
p4773
I-60
I53
tp4774
tp4775
Rp4776
(dp4777
g189
I53
sbg262
g293
tp4778
Rp4779
(dp4780
btp4781
Rp4782
(dp4783
bg4760
g3856
tp4784
Rp4785
(dp4786
bg219
(g246
g1726
g376
g4760
g3740
tp4787
Rp4788
(dp4789
bg219
(g183
((I0
S'9ad708812df8dL'
p4790
I-54
I52
tp4791
tp4792
Rp4793
(dp4794
g189
I53
sbg1204
g330
g4725
g262
tp4795
Rp4796
(dp4797
bg219
(g183
((I0
S'13975839fc391dL'
p4798
I-57
I53
tp4799
tp4800
Rp4801
(dp4802
g189
I53
sbg1204
g330
g4782
g293
tp4803
Rp4804
(dp4805
bg219
(g183
((I1
S'5ff424738ffc1L'
p4806
I-59
I51
tp4807
tp4808
Rp4809
(dp4810
g189
I53
sbg330
g3802
g293
g1062
tp4811
Rp4812
(dp4813
btp4814
Rp4815
(dp4816
btp4817
Rp4818
(dp4819
bag219
(g206
g218
(g219
(g246
g330
g4725
g218
(g219
(g183
((I1
S'4a2b4072e0a55L'
p4820
I-48
I51
tp4821
tp4822
Rp4823
(dp4824
g189
I53
sbg379
tp4825
Rp4826
(dp4827
bg219
(g183
((I0
S'9ad708812df8dL'
p4828
I-54
I52
tp4829
tp4830
Rp4831
(dp4832
g189
I53
sbg1204
g262
tp4833
Rp4834
(dp4835
bg219
(g183
((I0
S'19a6f78586412fL'
p4836
I-57
I53
tp4837
tp4838
Rp4839
(dp4840
g189
I53
sbg1059
g310
tp4841
Rp4842
(dp4843
bg219
(g183
((I0
S'1e3dffa93afa99L'
p4844
I-54
I53
tp4845
tp4846
Rp4847
(dp4848
g189
I53
sbg4
g1174
tp4849
Rp4850
(dp4851
btp4852
Rp4853
(dp4854
btp4855
Rp4856
(dp4857
bg219
(g246
g330
g218
(g219
(g183
((I0
S'a606143a8eb55L'
p4858
I-58
I52
tp4859
tp4860
Rp4861
(dp4862
g189
I53
sbg1193
tp4863
Rp4864
(dp4865
bg219
(g183
((I0
S'17b2ffa92fee33L'
p4866
I-60
I53
tp4867
tp4868
Rp4869
(dp4870
g189
I53
sbg293
g1048
tp4871
Rp4872
(dp4873
btp4874
Rp4875
(dp4876
bg3856
tp4877
Rp4878
(dp4879
bg219
(g246
g330
g218
(g219
(g183
((I1
S'da793eee15fbfL'
p4880
I-59
I52
tp4881
tp4882
Rp4883
(dp4884
g189
I53
sbg1048
tp4885
Rp4886
(dp4887
bg219
(g183
((I1
S'1f68eb21d421e9L'
p4888
I-62
I53
tp4889
tp4890
Rp4891
(dp4892
g189
I53
sbg293
g1193
tp4893
Rp4894
(dp4895
btp4896
Rp4897
(dp4898
bg3740
tp4899
Rp4900
(dp4901
bg219
(g246
g1726
g4725
g218
(g219
(g183
((I0
S'842472f11b79dL'
p4902
I-60
I52
tp4903
tp4904
Rp4905
(dp4906
g189
I53
sbg262
g1048
tp4907
Rp4908
(dp4909
bg219
(g183
((I1
S'10a2e0714ba6b5L'
p4910
I-62
I53
tp4911
tp4912
Rp4913
(dp4914
g189
I53
sbg310
g1193
tp4915
Rp4916
(dp4917
bg219
(g183
((I0
S'97fbfcd79f089L'
p4918
I-62
I52
tp4919
tp4920
Rp4921
(dp4922
g189
I53
sbg262
g293
g1193
tp4923
Rp4924
(dp4925
bg219
(g183
((I1
S'97fbfcd79f089L'
p4926
I-62
I52
tp4927
tp4928
Rp4929
(dp4930
g189
I53
sbg293
g310
g1048
tp4931
Rp4932
(dp4933
btp4934
Rp4935
(dp4936
bg3802
tp4937
Rp4938
(dp4939
bg219
(g246
g1726
g4782
g4935
g3856
tp4940
Rp4941
(dp4942
bg219
(g246
g1726
g376
g4935
g3740
tp4943
Rp4944
(dp4945
bg219
(g183
((I0
S'9ad708812df8dL'
p4946
I-54
I52
tp4947
tp4948
Rp4949
(dp4950
g189
I53
sbg1045
g330
g376
g262
tp4951
Rp4952
(dp4953
bg219
(g183
((I0
S'19a6f78586412fL'
p4954
I-57
I53
tp4955
tp4956
Rp4957
(dp4958
g189
I53
sbg1045
g330
g4782
g310
tp4959
Rp4960
(dp4961
btp4962
Rp4963
(dp4964
btp4965
Rp4966
(dp4967
bag219
(g206
g218
(g219
(g246
g330
g4782
g218
(g219
(g183
((I1
S'12c4bd458ce1b7L'
p4968
I-52
I53
tp4969
tp4970
Rp4971
(dp4972
g189
I53
sbg409
tp4973
Rp4974
(dp4975
bg219
(g183
((I0
S'13975839fc391dL'
p4976
I-57
I53
tp4977
tp4978
Rp4979
(dp4980
g189
I53
sbg1204
g293
tp4981
Rp4982
(dp4983
bg219
(g183
((I0
S'19a6f78586412fL'
p4984
I-57
I53
tp4985
tp4986
Rp4987
(dp4988
g189
I53
sbg1045
g310
tp4989
Rp4990
(dp4991
bg219
(g183
((I0
S'1e9c79da9a193dL'
p4992
I-56
I53
tp4993
tp4994
Rp4995
(dp4996
g189
I53
sbg4
g1289
tp4997
Rp4998
(dp4999
btp5000
Rp5001
(dp5002
btp5003
Rp5004
(dp5005
bg219
(g246
g330
g218
(g219
(g183
((I1
S'a606143a8eb55L'
p5006
I-58
I52
tp5007
tp5008
Rp5009
(dp5010
g189
I53
sbg1193
tp5011
Rp5012
(dp5013
bg219
(g183
((I0
S'17b2ffa92fee33L'
p5014
I-60
I53
tp5015
tp5016
Rp5017
(dp5018
g189
I53
sbg262
g1062
tp5019
Rp5020
(dp5021
btp5022
Rp5023
(dp5024
bg3856
tp5025
Rp5026
(dp5027
bg219
(g246
g330
g218
(g219
(g183
((I0
S'1f68eb21d421e9L'
p5028
I-62
I53
tp5029
tp5030
Rp5031
(dp5032
g189
I53
sbg293
g1193
tp5033
Rp5034
(dp5035
bg219
(g183
((I0
S'1f68eb21d421e9L'
p5036
I-62
I53
tp5037
tp5038
Rp5039
(dp5040
g189
I53
sbg310
g1062
tp5041
Rp5042
(dp5043
btp5044
Rp5045
(dp5046
bg3740
tp5047
Rp5048
(dp5049
bg219
(g246
g1726
g4725
g218
(g219
(g183
((I0
S'8c585bae390d1L'
p5050
I-62
I52
tp5051
tp5052
Rp5053
(dp5054
g189
I53
sbg293
g1062
tp5055
Rp5056
(dp5057
bg219
(g183
((I0
S'10a2e0714ba6b5L'
p5058
I-62
I53
tp5059
tp5060
Rp5061
(dp5062
g189
I53
sbg310
g1193
tp5063
Rp5064
(dp5065
bg219
(g183
((I1
S'97fbfcd79f089L'
p5066
I-62
I52
tp5067
tp5068
Rp5069
(dp5070
g189
I53
sbg262
g293
g1193
tp5071
Rp5072
(dp5073
bg219
(g183
((I1
S'97fbfcd79f089L'
p5074
I-62
I52
tp5075
tp5076
Rp5077
(dp5078
g189
I53
sbg262
g310
g1062
tp5079
Rp5080
(dp5081
btp5082
Rp5083
(dp5084
bg3802
tp5085
Rp5086
(dp5087
bg219
(g246
g1726
g4782
g5083
g3856
tp5088
Rp5089
(dp5090
bg219
(g246
g1726
g376
g5083
g3740
tp5091
Rp5092
(dp5093
bg219
(g183
((I0
S'5ff424738ffc1L'
p5094
I-59
I51
tp5095
tp5096
Rp5097
(dp5098
g189
I53
sbg330
g3802
g293
g1062
tp5099
Rp5100
(dp5101
bg219
(g183
((I0
S'13975839fc391dL'
p5102
I-57
I53
tp5103
tp5104
Rp5105
(dp5106
g189
I53
sbg1059
g330
g376
g293
tp5107
Rp5108
(dp5109
bg219
(g183
((I0
S'19a6f78586412fL'
p5110
I-57
I53
tp5111
tp5112
Rp5113
(dp5114
g189
I53
sbg1059
g330
g4725
g310
tp5115
Rp5116
(dp5117
btp5118
Rp5119
(dp5120
btp5121
Rp5122
(dp5123
bag181
ag219
(g206
g218
(g219
(g183
((I1
S'1d4e721449adL'
p5124
I-52
I45
tp5125
tp5126
Rp5127
(dp5128
g189
I53
sbg330
g376
tp5129
Rp5130
(dp5131
bg219
(g246
g330
g4725
g218
(g183
((I1
S'82d797485efe1L'
p5132
I-70
I52
tp5133
tp5134
Rp5135
(dp5136
g189
I53
sbg219
(g183
((I1
S'9ad708812df8dL'
p5137
I-53
I52
tp5138
tp5139
Rp5140
(dp5141
g189
I53
sbg526
g1048
tp5142
Rp5143
(dp5144
btp5145
Rp5146
(dp5147
btp5148
Rp5149
(dp5150
bg219
(g183
((I0
S'13975839fc391dL'
p5151
I-56
I53
tp5152
tp5153
Rp5154
(dp5155
g189
I53
sbg526
g330
g4782
g1062
tp5156
Rp5157
(dp5158
btp5159
Rp5160
(dp5161
btp5162
Rp5163
(dp5164
bag218
(g201
g219
(g206
g218
(g219
(g183
((I1
S'6c070df4060d1L'
p5165
I-60
I51
tp5166
tp5167
Rp5168
(dp5169
g189
I53
sbg330
g4725
tp5170
Rp5171
(dp5172
bg219
(g246
g330
g218
(g183
((I1
S'6be6580e33f55L'
p5173
I-60
I51
tp5174
tp5175
Rp5176
(dp5177
g189
I53
sbg219
(g183
((I1
S'19a6f78586412fL'
p5178
I-56
I53
tp5179
tp5180
Rp5181
(dp5182
g189
I53
sbg533
g1193
tp5183
Rp5184
(dp5185
btp5186
Rp5187
(dp5188
bg4782
tp5189
Rp5190
(dp5191
bg219
(g246
g330
g218
(g183
((I1
S'82d797485efe1L'
p5192
I-70
I52
tp5193
tp5194
Rp5195
(dp5196
g189
I53
sbg219
(g183
((I0
S'9ad708812df8dL'
p5197
I-53
I52
tp5198
tp5199
Rp5200
(dp5201
g189
I53
sbg533
g1048
tp5202
Rp5203
(dp5204
btp5205
Rp5206
(dp5207
bg376
tp5208
Rp5209
(dp5210
btp5211
Rp5212
(dp5213
btp5214
Rp5215
(dp5216
btp5217
Rp5218
(dp5219
bag219
(g206
g218
(g219
(g183
((I1
S'6be6580e33f55L'
p5220
I-60
I51
tp5221
tp5222
Rp5223
(dp5224
g189
I53
sbg330
g4782
tp5225
Rp5226
(dp5227
bg219
(g246
g330
g4725
g218
(g183
((I1
S'6be6580e33f55L'
p5228
I-60
I51
tp5229
tp5230
Rp5231
(dp5232
g189
I53
sbg219
(g183
((I0
S'19a6f78586412fL'
p5233
I-56
I53
tp5234
tp5235
Rp5236
(dp5237
g189
I53
sbg540
g1193
tp5238
Rp5239
(dp5240
btp5241
Rp5242
(dp5243
btp5244
Rp5245
(dp5246
bg219
(g183
((I1
S'13975839fc391dL'
p5247
I-56
I53
tp5248
tp5249
Rp5250
(dp5251
g189
I53
sbg540
g330
g376
g1062
tp5252
Rp5253
(dp5254
btp5255
Rp5256
(dp5257
btp5258
Rp5259
(dp5260
bag181
ag219
(g206
g218
(g219
(g246
g330
g218
(g219
(g183
((I0
S'1ca79d82cabf43L'
p5261
I-60
I53
tp5262
tp5263
Rp5264
(dp5265
g189
I53
sbg1062
tp5266
Rp5267
(dp5268
bg219
(g183
((I1
S'1f07f9f4bac24bL'
p5269
I-60
I53
tp5270
tp5271
Rp5272
(dp5273
g189
I53
sbg310
g1048
tp5274
Rp5275
(dp5276
btp5277
Rp5278
(dp5279
bg218
(g219
(g183
((I0
S'1d4e721449adL'
p5280
I-52
I45
tp5281
tp5282
Rp5283
(dp5284
g189
I53
sbg526
tp5285
Rp5286
(dp5287
bg219
(g183
((I1
S'82d797485efe1L'
p5288
I-70
I52
tp5289
tp5290
Rp5291
(dp5292
g189
I53
sbg533
tp5293
Rp5294
(dp5295
bg219
(g183
((I1
S'c706393c25ba9L'
p5296
I-49
I52
tp5297
tp5298
Rp5299
(dp5300
g189
I53
sbg1018
tp5301
Rp5302
(dp5303
bg219
(g183
((I0
S'9ad708812df8dL'
p5304
I-54
I52
tp5305
tp5306
Rp5307
(dp5308
g189
I53
sbg1045
g1048
tp5309
Rp5310
(dp5311
bg219
(g183
((I0
S'13975839fc391dL'
p5312
I-57
I53
tp5313
tp5314
Rp5315
(dp5316
g189
I53
sbg1059
g1062
tp5317
Rp5318
(dp5319
bg219
(g183
((I1
S'a24d9f25d4223L'
p5320
I-52
I52
tp5321
tp5322
Rp5323
(dp5324
g189
I53
sbg4
g349
tp5325
Rp5326
(dp5327
btp5328
Rp5329
(dp5330
btp5331
Rp5332
(dp5333
bg219
(g246
g330
g218
(g219
(g183
((I1
S'1ca79d82cabf43L'
p5334
I-60
I53
tp5335
tp5336
Rp5337
(dp5338
g189
I53
sbg293
tp5339
Rp5340
(dp5341
bg219
(g183
((I0
S'1f07f9f4bac24bL'
p5342
I-60
I53
tp5343
tp5344
Rp5345
(dp5346
g189
I53
sbg262
g310
tp5347
Rp5348
(dp5349
btp5350
Rp5351
(dp5352
bg218
(g219
(g183
((I1
S'c706393c25ba9L'
p5353
I-49
I52
tp5354
tp5355
Rp5356
(dp5357
g189
I53
sbg349
tp5358
Rp5359
(dp5360
bg219
(g183
((I0
S'9ad708812df8dL'
p5361
I-54
I52
tp5362
tp5363
Rp5364
(dp5365
g189
I53
sbg1045
g262
tp5366
Rp5367
(dp5368
bg219
(g183
((I0
S'a24d9f25d4223L'
p5369
I-52
I52
tp5370
tp5371
Rp5372
(dp5373
g189
I53
sbg4
g1018
tp5374
Rp5375
(dp5376
bg219
(g183
((I0
S'13975839fc391dL'
p5377
I-57
I53
tp5378
tp5379
Rp5380
(dp5381
g189
I53
sbg1059
g293
tp5382
Rp5383
(dp5384
btp5385
Rp5386
(dp5387
btp5388
Rp5389
(dp5390
bg219
(g246
g330
g218
(g219
(g183
((I1
S'17b2ffa92fee33L'
p5391
I-60
I53
tp5392
tp5393
Rp5394
(dp5395
g189
I53
sbg262
g1062
tp5396
Rp5397
(dp5398
bg219
(g183
((I1
S'17b2ffa92fee33L'
p5399
I-60
I53
tp5400
tp5401
Rp5402
(dp5403
g189
I53
sbg293
g1048
tp5404
Rp5405
(dp5406
btp5407
Rp5408
(dp5409
bg218
(g219
(g183
((I0
S'6c070df4060d1L'
p5410
I-60
I51
tp5411
tp5412
Rp5413
(dp5414
g189
I53
sbg533
tp5415
Rp5416
(dp5417
bg219
(g183
((I1
S'4a2b4072e0a55L'
p5418
I-48
I51
tp5419
tp5420
Rp5421
(dp5422
g189
I53
sbg1174
tp5423
Rp5424
(dp5425
bg219
(g183
((I1
S'6be6580e33f55L'
p5426
I-60
I51
tp5427
tp5428
Rp5429
(dp5430
g189
I53
sbg540
tp5431
Rp5432
(dp5433
bg219
(g183
((I1
S'82d797485efe1L'
p5434
I-70
I52
tp5435
tp5436
Rp5437
(dp5438
g189
I53
sbg526
tp5439
Rp5440
(dp5441
bg219
(g183
((I0
S'19a6f78586412fL'
p5442
I-57
I53
tp5443
tp5444
Rp5445
(dp5446
g189
I53
sbg1059
g1193
tp5447
Rp5448
(dp5449
bg219
(g183
((I1
S'9ad708812df8dL'
p5450
I-54
I52
tp5451
tp5452
Rp5453
(dp5454
g189
I53
sbg1204
g1048
tp5455
Rp5456
(dp5457
bg219
(g183
((I1
S'1e3dffa93afa99L'
p5458
I-54
I53
tp5459
tp5460
Rp5461
(dp5462
g189
I53
sbg4
g379
tp5463
Rp5464
(dp5465
btp5466
Rp5467
(dp5468
btp5469
Rp5470
(dp5471
bg219
(g246
g1726
g218
(g183
((I0
S'4bbb0533d43ebL'
p5472
I-55
I51
tp5473
tp5474
Rp5475
(dp5476
g189
I53
sbg219
(g183
((I1
S'bb4ed5b56925dL'
p5477
I-57
I52
tp5478
tp5479
Rp5480
(dp5481
g189
I53
sbg269
tp5482
Rp5483
(dp5484
btp5485
Rp5486
(dp5487
bg218
(g219
(g183
((I1
S'842472f11b79dL'
p5488
I-60
I52
tp5489
tp5490
Rp5491
(dp5492
g189
I53
sbg262
g1048
tp5493
Rp5494
(dp5495
bg219
(g183
((I1
S'8c585bae390d1L'
p5496
I-62
I52
tp5497
tp5498
Rp5499
(dp5500
g189
I53
sbg293
g1062
tp5501
Rp5502
(dp5503
bg219
(g183
((I0
S'97fbfcd79f089L'
p5504
I-62
I52
tp5505
tp5506
Rp5507
(dp5508
g189
I53
sbg262
g310
g1062
tp5509
Rp5510
(dp5511
bg219
(g183
((I0
S'97fbfcd79f089L'
p5512
I-62
I52
tp5513
tp5514
Rp5515
(dp5516
g189
I53
sbg293
g310
g1048
tp5517
Rp5518
(dp5519
btp5520
Rp5521
(dp5522
bg218
(g219
(g183
((I0
S'6be6580e33f55L'
p5523
I-60
I51
tp5524
tp5525
Rp5526
(dp5527
g189
I53
sbg540
tp5528
Rp5529
(dp5530
bg219
(g183
((I1
S'6be6580e33f55L'
p5531
I-60
I51
tp5532
tp5533
Rp5534
(dp5535
g189
I53
sbg533
tp5536
Rp5537
(dp5538
bg219
(g183
((I1
S'12c4bd458ce1b7L'
p5539
I-52
I53
tp5540
tp5541
Rp5542
(dp5543
g189
I53
sbg1289
tp5544
Rp5545
(dp5546
bg219
(g183
((I1
S'13975839fc391dL'
p5547
I-57
I53
tp5548
tp5549
Rp5550
(dp5551
g189
I53
sbg1204
g1062
tp5552
Rp5553
(dp5554
bg219
(g183
((I1
S'19a6f78586412fL'
p5555
I-57
I53
tp5556
tp5557
Rp5558
(dp5559
g189
I53
sbg1045
g1193
tp5560
Rp5561
(dp5562
bg219
(g183
((I1
S'1e9c79da9a193dL'
p5563
I-56
I53
tp5564
tp5565
Rp5566
(dp5567
g189
I53
sbg4
g409
tp5568
Rp5569
(dp5570
btp5571
Rp5572
(dp5573
btp5574
Rp5575
(dp5576
bg219
(g246
g1726
g4782
g5521
g5467
tp5577
Rp5578
(dp5579
bg219
(g246
g1726
g5351
g5521
g5329
tp5580
Rp5581
(dp5582
bg219
(g183
((I0
S'9ad708812df8dL'
p5583
I-54
I52
tp5584
tp5585
Rp5586
(dp5587
g189
I53
sbg1204
g330
g4782
g262
tp5588
Rp5589
(dp5590
bg219
(g183
((I0
S'13975839fc391dL'
p5591
I-57
I53
tp5592
tp5593
Rp5594
(dp5595
g189
I53
sbg1204
g330
g5486
g293
tp5596
Rp5597
(dp5598
bg219
(g183
((I1
S'bb4ed5b56925dL'
p5599
I-56
I52
tp5600
tp5601
Rp5602
(dp5603
g189
I53
sbg330
g5572
g262
g1048
tp5604
Rp5605
(dp5606
btp5607
Rp5608
(dp5609
btp5610
Rp5611
(dp5612
bag219
(g206
g218
(g219
(g246
g330
g218
(g219
(g183
((I0
S'a606143a8eb55L'
p5613
I-58
I52
tp5614
tp5615
Rp5616
(dp5617
g189
I53
sbg1193
tp5618
Rp5619
(dp5620
bg219
(g183
((I0
S'17b2ffa92fee33L'
p5621
I-60
I53
tp5622
tp5623
Rp5624
(dp5625
g189
I53
sbg293
g1048
tp5626
Rp5627
(dp5628
btp5629
Rp5630
(dp5631
bg5467
tp5632
Rp5633
(dp5634
bg219
(g246
g330
g4782
g218
(g219
(g183
((I1
S'4a2b4072e0a55L'
p5635
I-48
I51
tp5636
tp5637
Rp5638
(dp5639
g189
I53
sbg379
tp5640
Rp5641
(dp5642
bg219
(g183
((I0
S'9ad708812df8dL'
p5643
I-54
I52
tp5644
tp5645
Rp5646
(dp5647
g189
I53
sbg1204
g262
tp5648
Rp5649
(dp5650
bg219
(g183
((I0
S'19a6f78586412fL'
p5651
I-57
I53
tp5652
tp5653
Rp5654
(dp5655
g189
I53
sbg1059
g310
tp5656
Rp5657
(dp5658
bg219
(g183
((I0
S'1e3dffa93afa99L'
p5659
I-54
I53
tp5660
tp5661
Rp5662
(dp5663
g189
I53
sbg4
g1174
tp5664
Rp5665
(dp5666
btp5667
Rp5668
(dp5669
btp5670
Rp5671
(dp5672
bg219
(g246
g330
g218
(g219
(g183
((I0
S'1f07f9f4bac24bL'
p5673
I-60
I53
tp5674
tp5675
Rp5676
(dp5677
g189
I53
sbg310
g1048
tp5678
Rp5679
(dp5680
bg219
(g183
((I1
S'1f07f9f4bac24bL'
p5681
I-60
I53
tp5682
tp5683
Rp5684
(dp5685
g189
I53
sbg262
g1193
tp5686
Rp5687
(dp5688
btp5689
Rp5690
(dp5691
bg5329
tp5692
Rp5693
(dp5694
bg219
(g246
g1726
g5486
g218
(g219
(g183
((I0
S'842472f11b79dL'
p5695
I-60
I52
tp5696
tp5697
Rp5698
(dp5699
g189
I53
sbg262
g1048
tp5700
Rp5701
(dp5702
bg219
(g183
((I1
S'10a2e0714ba6b5L'
p5703
I-62
I53
tp5704
tp5705
Rp5706
(dp5707
g189
I53
sbg310
g1193
tp5708
Rp5709
(dp5710
bg219
(g183
((I0
S'97fbfcd79f089L'
p5711
I-62
I52
tp5712
tp5713
Rp5714
(dp5715
g189
I53
sbg262
g293
g1193
tp5716
Rp5717
(dp5718
bg219
(g183
((I1
S'97fbfcd79f089L'
p5719
I-62
I52
tp5720
tp5721
Rp5722
(dp5723
g189
I53
sbg293
g310
g1048
tp5724
Rp5725
(dp5726
btp5727
Rp5728
(dp5729
bg5572
tp5730
Rp5731
(dp5732
bg219
(g246
g1726
g4782
g5728
g5467
tp5733
Rp5734
(dp5735
bg219
(g246
g1726
g5351
g5728
g5329
tp5736
Rp5737
(dp5738
bg219
(g183
((I0
S'9ad708812df8dL'
p5739
I-54
I52
tp5740
tp5741
Rp5742
(dp5743
g189
I53
sbg1045
g330
g5351
g262
tp5744
Rp5745
(dp5746
bg219
(g183
((I0
S'bb4ed5b56925dL'
p5747
I-56
I52
tp5748
tp5749
Rp5750
(dp5751
g189
I53
sbg330
g5572
g262
g1048
tp5752
Rp5753
(dp5754
bg219
(g183
((I0
S'19a6f78586412fL'
p5755
I-57
I53
tp5756
tp5757
Rp5758
(dp5759
g189
I53
sbg1045
g330
g5486
g310
tp5760
Rp5761
(dp5762
btp5763
Rp5764
(dp5765
btp5766
Rp5767
(dp5768
bag219
(g206
g218
(g219
(g246
g330
g5486
g218
(g219
(g183
((I1
S'12c4bd458ce1b7L'
p5769
I-52
I53
tp5770
tp5771
Rp5772
(dp5773
g189
I53
sbg409
tp5774
Rp5775
(dp5776
bg219
(g183
((I0
S'13975839fc391dL'
p5777
I-57
I53
tp5778
tp5779
Rp5780
(dp5781
g189
I53
sbg1204
g293
tp5782
Rp5783
(dp5784
bg219
(g183
((I0
S'19a6f78586412fL'
p5785
I-57
I53
tp5786
tp5787
Rp5788
(dp5789
g189
I53
sbg1045
g310
tp5790
Rp5791
(dp5792
bg219
(g183
((I0
S'1e9c79da9a193dL'
p5793
I-56
I53
tp5794
tp5795
Rp5796
(dp5797
g189
I53
sbg4
g1289
tp5798
Rp5799
(dp5800
btp5801
Rp5802
(dp5803
btp5804
Rp5805
(dp5806
bg219
(g246
g330
g218
(g219
(g183
((I1
S'a606143a8eb55L'
p5807
I-58
I52
tp5808
tp5809
Rp5810
(dp5811
g189
I53
sbg1193
tp5812
Rp5813
(dp5814
bg219
(g183
((I0
S'17b2ffa92fee33L'
p5815
I-60
I53
tp5816
tp5817
Rp5818
(dp5819
g189
I53
sbg262
g1062
tp5820
Rp5821
(dp5822
btp5823
Rp5824
(dp5825
bg5467
tp5826
Rp5827
(dp5828
bg219
(g246
g330
g218
(g219
(g183
((I1
S'1ca79d82cabf43L'
p5829
I-60
I53
tp5830
tp5831
Rp5832
(dp5833
g189
I53
sbg1062
tp5834
Rp5835
(dp5836
bg219
(g183
((I0
S'1f07f9f4bac24bL'
p5837
I-60
I53
tp5838
tp5839
Rp5840
(dp5841
g189
I53
sbg262
g1193
tp5842
Rp5843
(dp5844
btp5845
Rp5846
(dp5847
bg5329
tp5848
Rp5849
(dp5850
bg219
(g246
g1726
g5486
g218
(g219
(g183
((I0
S'8c585bae390d1L'
p5851
I-62
I52
tp5852
tp5853
Rp5854
(dp5855
g189
I53
sbg293
g1062
tp5856
Rp5857
(dp5858
bg219
(g183
((I0
S'10a2e0714ba6b5L'
p5859
I-62
I53
tp5860
tp5861
Rp5862
(dp5863
g189
I53
sbg310
g1193
tp5864
Rp5865
(dp5866
bg219
(g183
((I1
S'97fbfcd79f089L'
p5867
I-62
I52
tp5868
tp5869
Rp5870
(dp5871
g189
I53
sbg262
g293
g1193
tp5872
Rp5873
(dp5874
bg219
(g183
((I1
S'97fbfcd79f089L'
p5875
I-62
I52
tp5876
tp5877
Rp5878
(dp5879
g189
I53
sbg262
g310
g1062
tp5880
Rp5881
(dp5882
btp5883
Rp5884
(dp5885
bg5572
tp5886
Rp5887
(dp5888
bg219
(g246
g1726
g4782
g5884
g5467
tp5889
Rp5890
(dp5891
bg219
(g246
g1726
g5351
g5884
g5329
tp5892
Rp5893
(dp5894
bg219
(g183
((I0
S'13975839fc391dL'
p5895
I-57
I53
tp5896
tp5897
Rp5898
(dp5899
g189
I53
sbg1059
g330
g5351
g293
tp5900
Rp5901
(dp5902
bg219
(g183
((I0
S'19a6f78586412fL'
p5903
I-57
I53
tp5904
tp5905
Rp5906
(dp5907
g189
I53
sbg1059
g330
g4782
g310
tp5908
Rp5909
(dp5910
btp5911
Rp5912
(dp5913
btp5914
Rp5915
(dp5916
bag181
ag219
(g206
g218
(g219
(g183
((I1
S'1d4e721449adL'
p5917
I-52
I45
tp5918
tp5919
Rp5920
(dp5921
g189
I53
sbg330
g5351
tp5922
Rp5923
(dp5924
bg219
(g246
g330
g218
(g183
((I1
S'82d797485efe1L'
p5925
I-70
I52
tp5926
tp5927
Rp5928
(dp5929
g189
I53
sbg219
(g183
((I1
S'9ad708812df8dL'
p5930
I-53
I52
tp5931
tp5932
Rp5933
(dp5934
g189
I53
sbg526
g1048
tp5935
Rp5936
(dp5937
btp5938
Rp5939
(dp5940
bg4782
tp5941
Rp5942
(dp5943
bg219
(g183
((I0
S'13975839fc391dL'
p5944
I-56
I53
tp5945
tp5946
Rp5947
(dp5948
g189
I53
sbg526
g330
g5486
g1062
tp5949
Rp5950
(dp5951
btp5952
Rp5953
(dp5954
btp5955
Rp5956
(dp5957
bag219
(g206
g218
(g219
(g183
((I1
S'6c070df4060d1L'
p5958
I-60
I51
tp5959
tp5960
Rp5961
(dp5962
g189
I53
sbg330
g4782
tp5963
Rp5964
(dp5965
bg219
(g246
g330
g5486
g218
(g183
((I1
S'6be6580e33f55L'
p5966
I-60
I51
tp5967
tp5968
Rp5969
(dp5970
g189
I53
sbg219
(g183
((I1
S'19a6f78586412fL'
p5971
I-56
I53
tp5972
tp5973
Rp5974
(dp5975
g189
I53
sbg533
g1193
tp5976
Rp5977
(dp5978
btp5979
Rp5980
(dp5981
btp5982
Rp5983
(dp5984
bg219
(g246
g330
g218
(g183
((I1
S'82d797485efe1L'
p5985
I-70
I52
tp5986
tp5987
Rp5988
(dp5989
g189
I53
sbg219
(g183
((I0
S'9ad708812df8dL'
p5990
I-53
I52
tp5991
tp5992
Rp5993
(dp5994
g189
I53
sbg533
g1048
tp5995
Rp5996
(dp5997
btp5998
Rp5999
(dp6000
bg5351
tp6001
Rp6002
(dp6003
btp6004
Rp6005
(dp6006
btp6007
Rp6008
(dp6009
bag218
(g201
g219
(g206
g218
(g219
(g183
((I1
S'6be6580e33f55L'
p6010
I-60
I51
tp6011
tp6012
Rp6013
(dp6014
g189
I53
sbg330
g5486
tp6015
Rp6016
(dp6017
bg219
(g246
g330
g218
(g183
((I1
S'6be6580e33f55L'
p6018
I-60
I51
tp6019
tp6020
Rp6021
(dp6022
g189
I53
sbg219
(g183
((I0
S'19a6f78586412fL'
p6023
I-56
I53
tp6024
tp6025
Rp6026
(dp6027
g189
I53
sbg540
g1193
tp6028
Rp6029
(dp6030
btp6031
Rp6032
(dp6033
bg4782
tp6034
Rp6035
(dp6036
bg219
(g183
((I1
S'13975839fc391dL'
p6037
I-56
I53
tp6038
tp6039
Rp6040
(dp6041
g189
I53
sbg540
g330
g5351
g1062
tp6042
Rp6043
(dp6044
btp6045
Rp6046
(dp6047
btp6048
Rp6049
(dp6050
btp6051
Rp6052
(dp6053
bag181
ag181
ag181
ag181
ag181
ag181
ag181
ag181
ag201
asg203
I8
sbsS'A_uuu_num'
p6054
g7
(g172
g173
Ntp6055
Rp6056
(dp6057
g177
I8
sg178
(lp6058
g181
ag181
ag181
ag181
ag201
ag181
ag181
ag181
ag181
ag181
ag181
ag181
ag181
ag201
ag181
ag181
ag181
ag181
ag181
ag181
ag181
ag181
ag201
ag181
ag181
ag181
ag181
ag181
ag181
ag181
ag181
ag201
ag183
((I1
S'50eb435d93641L'
p6059
I-44
I51
tp6060
tp6061
Rp6062
(dp6063
g189
I53
sbag183
((I0
S'19cdd95f18de6bL'
p6064
I-47
I53
tp6065
tp6066
Rp6067
(dp6068
g189
I53
sbag183
((I1
S'1985606e3881a5L'
p6069
I-52
I53
tp6070
tp6071
Rp6072
(dp6073
g189
I53
sbag181
ag3935
ag3940
ag3945
ag181
ag183
((I0
S'114f84ef92c551L'
p6074
I-46
I53
tp6075
tp6076
Rp6077
(dp6078
g189
I53
sbag183
((I1
S'287d8daaaeb65L'
p6079
I-43
I50
tp6080
tp6081
Rp6082
(dp6083
g189
I53
sbag183
((I0
S'17e76b6a2dc863L'
p6084
I-49
I53
tp6085
tp6086
Rp6087
(dp6088
g189
I53
sbag181
ag3965
ag3970
ag3975
ag181
ag183
((I1
S'10ea0f85732d8bL'
p6089
I-49
I53
tp6090
tp6091
Rp6092
(dp6093
g189
I53
sbag183
((I0
S'bced256bb7bdL'
p6094
I-42
I48
tp6095
tp6096
Rp6097
(dp6098
g189
I53
sbag183
((I1
S'136677a63cdc23L'
p6099
I-47
I53
tp6100
tp6101
Rp6102
(dp6103
g189
I53
sbag181
ag3995
ag4000
ag4005
ag181
ag181
ag181
ag181
ag181
ag181
ag181
ag181
ag181
asg203
I8
sbsS'qdd_part_lin_num'
p6104
(lp6105
g526
ag533
ag540
ag547
ag218
(g219
(g246
g330
g218
(g183
((I0
S'420a0781d0b7dL'
p6106
I-57
I51
tp6107
tp6108
Rp6109
(dp6110
g189
I53
sbg219
(g183
((I1
S'149049f025ae33L'
p6111
I-61
I53
tp6112
tp6113
Rp6114
(dp6115
g189
I53
sbg313
tp6116
Rp6117
(dp6118
btp6119
Rp6120
(dp6121
bg5329
tp6122
Rp6123
(dp6124
bg219
(g246
g330
g218
(g219
(g183
((I1
S'da793eee15fbfL'
p6125
I-59
I52
tp6126
tp6127
Rp6128
(dp6129
g189
I53
sbg262
tp6130
Rp6131
(dp6132
bg219
(g183
((I0
S'1f68eb21d421e9L'
p6133
I-62
I53
tp6134
tp6135
Rp6136
(dp6137
g189
I53
sbg293
g310
tp6138
Rp6139
(dp6140
btp6141
Rp6142
(dp6143
bg5467
tp6144
Rp6145
(dp6146
bg219
(g246
g330
g5351
g5572
tp6147
Rp6148
(dp6149
btp6150
Rp6151
(dp6152
bag218
(g219
(g246
g330
g218
(g183
((I0
S'921c459d963b3L'
p6153
I-58
I52
tp6154
tp6155
Rp6156
(dp6157
g189
I53
sbg219
(g183
((I1
S'5ff424738ffc1L'
p6158
I-60
I51
tp6159
tp6160
Rp6161
(dp6162
g189
I53
sbg296
tp6163
Rp6164
(dp6165
btp6166
Rp6167
(dp6168
bg5467
tp6169
Rp6170
(dp6171
bg219
(g246
g330
g4782
g5572
tp6172
Rp6173
(dp6174
bg219
(g246
g330
g6142
g5329
tp6175
Rp6176
(dp6177
btp6178
Rp6179
(dp6180
bag218
(g219
(g246
g330
g5486
g5572
tp6181
Rp6182
(dp6183
bg219
(g246
g330
g4782
g5467
tp6184
Rp6185
(dp6186
bg219
(g246
g330
g5351
g5329
tp6187
Rp6188
(dp6189
btp6190
Rp6191
(dp6192
bag4
asS'Anum'
p6193
g7
(g172
g173
Ntp6194
Rp6195
(dp6196
g177
I8
sg178
(lp6197
g181
ag181
ag181
ag181
ag201
ag181
ag181
ag181
ag181
ag181
ag181
ag181
ag181
ag201
ag181
ag181
ag181
ag181
ag181
ag181
ag181
ag181
ag201
ag181
ag181
ag181
ag181
ag181
ag181
ag181
ag181
ag201
ag3920
ag3925
ag3930
ag181
ag3935
ag3940
ag3945
ag181
ag3950
ag3955
ag3960
ag181
ag3965
ag3970
ag3975
ag181
ag3980
ag3985
ag3990
ag181
ag3995
ag4000
ag4005
ag181
ag181
ag181
ag181
ag181
ag181
ag181
ag181
ag181
asg203
I8
sbs.